0x7f7860ac4eb0:  66 41 89 5c 3d 00        movw     %bx, (%r13, %rdi)
  -- guest addr 0x0000000000000ff3
0x7f7860ac4eb6:  44 89 65 00              movl     %r12d, (%rbp)
  -- guest addr 0x0000000000000ff6
0x7f7860ac4eba:  bb de 45 10 00           movl     $0x1045de, %ebx
0x7f7860ac4ebf:  8b fb                    movl     %ebx, %edi
0x7f7860ac4ec1:  c1 ef 07                 shrl     $7, %edi
0x7f7860ac4ec4:  23 bd 10 ff ff ff        andl     -0xf0(%rbp), %edi
0x7f7860ac4eca:  48 03 bd 18 ff ff ff     addq     -0xe8(%rbp), %rdi
0x7f7860ac4ed1:  8d 73 01                 leal     1(%rbx), %esi
0x7f7860ac4ed4:  81 e6 00 f0 ff ff        andl     $0xfffff000, %esi
0x7f7860ac4eda:  3b 77 08                 cmpl     8(%rdi), %esi
0x7f7860ac4edd:  0f 85 ea 10 00 00        jne      0x7f7860ac5fcd
0x7f7860ac4ee3:  48 8b 7f 18              movq     0x18(%rdi), %rdi
0x7f7860ac4ee7:  66 44 89 24 3b           movw     %r12w, (%rbx, %rdi)
0x7f7860ac4eec:  c7 45 34 28 00 00 00     movl     $0x28, 0x34(%rbp)
0x7f7860ac4ef3:  8b 5d 20                 movl     0x20(%rbp), %ebx
0x7f7860ac4ef6:  81 c3 53 05 00 00        addl     $0x553, %ebx
0x7f7860ac4efc:  89 5d 20                 movl     %ebx, 0x20(%rbp)
0x7f7860ac4eff:  e9 00 00 00 00           jmp      0x7f7860ac4f04
0x7f7860ac4f04:  48 8d 05 75 df ff ff     leaq     -0x208b(%rip), %rax
0x7f7860ac4f0b:  e9 08 b1 53 ff           jmp      0x7f7860000018
0x7f7860ac4f10:  48 8d 05 6c df ff ff     leaq     -0x2094(%rip), %rax
0x7f7860ac4f17:  e9 fc b0 53 ff           jmp      0x7f7860000018
  -- tb slow paths + alignment
0x7f7860ac4f1c:  41 8b f4                 movl     %r12d, %esi
0x7f7860ac4f1f:  8b d3                    movl     %ebx, %edx
0x7f7860ac4f21:  48 8b fd                 movq     %rbp, %rdi
0x7f7860ac4f24:  b9 22 00 00 00           movl     $0x22, %ecx
0x7f7860ac4f29:  4c 8d 05 66 e0 ff ff     leaq     -0x1f9a(%rip), %r8
0x7f7860ac4f30:  ff 15 ba 10 00 00        callq    *0x10ba(%rip)
0x7f7860ac4f36:  e9 5b e0 ff ff           jmp      0x7f7860ac2f96
0x7f7860ac4f3b:  41 8b f5                 movl     %r13d, %esi
0x7f7860ac4f3e:  41 8b d4                 movl     %r12d, %edx
0x7f7860ac4f41:  48 8b fd                 movq     %rbp, %rdi
0x7f7860ac4f44:  b9 12 00 00 00           movl     $0x12, %ecx
0x7f7860ac4f49:  4c 8d 05 82 e0 ff ff     leaq     -0x1f7e(%rip), %r8
0x7f7860ac4f50:  ff 15 a2 10 00 00        callq    *0x10a2(%rip)
0x7f7860ac4f56:  e9 77 e0 ff ff           jmp      0x7f7860ac2fd2
0x7f7860ac4f5b:  41 8b f5                 movl     %r13d, %esi
0x7f7860ac4f5e:  41 8b d4                 movl     %r12d, %edx
0x7f7860ac4f61:  48 8b fd                 movq     %rbp, %rdi
0x7f7860ac4f64:  b9 12 00 00 00           movl     $0x12, %ecx
0x7f7860ac4f69:  4c 8d 05 b3 e0 ff ff     leaq     -0x1f4d(%rip), %r8
0x7f7860ac4f70:  ff 15 82 10 00 00        callq    *0x1082(%rip)
0x7f7860ac4f76:  e9 a8 e0 ff ff           jmp      0x7f7860ac3023
0x7f7860ac4f7b:  41 8b f6                 movl     %r14d, %esi
0x7f7860ac4f7e:  41 8b d5                 movl     %r13d, %edx
0x7f7860ac4f81:  48 8b fd                 movq     %rbp, %rdi
0x7f7860ac4f84:  b9 12 00 00 00           movl     $0x12, %ecx
0x7f7860ac4f89:  4c 8d 05 d5 e0 ff ff     leaq     -0x1f2b(%rip), %r8
0x7f7860ac4f90:  ff 15 62 10 00 00        callq    *0x1062(%rip)
0x7f7860ac4f96:  e9 ca e0 ff ff           jmp      0x7f7860ac3065
0x7f7860ac4f9b:  41 8b f5                 movl     %r13d, %esi
0x7f7860ac4f9e:  41 8b d4                 movl     %r12d, %edx
0x7f7860ac4fa1:  48 8b fd                 movq     %rbp, %rdi
0x7f7860ac4fa4:  b9 12 00 00 00           movl     $0x12, %ecx
0x7f7860ac4fa9:  4c 8d 05 ef e0 ff ff     leaq     -0x1f11(%rip), %r8
0x7f7860ac4fb0:  ff 15 42 10 00 00        callq    *0x1042(%rip)
0x7f7860ac4fb6:  e9 e4 e0 ff ff           jmp      0x7f7860ac309f
0x7f7860ac4fbb:  41 8b f6                 movl     %r14d, %esi
0x7f7860ac4fbe:  41 8b d5                 movl     %r13d, %edx
0x7f7860ac4fc1:  48 8b fd                 movq     %rbp, %rdi
0x7f7860ac4fc4:  b9 12 00 00 00           movl     $0x12, %ecx
0x7f7860ac4fc9:  4c 8d 05 11 e1 ff ff     leaq     -0x1eef(%rip), %r8
0x7f7860ac4fd0:  ff 15 22 10 00 00        callq    *0x1022(%rip)
0x7f7860ac4fd6:  e9 06 e1 ff ff           jmp      0x7f7860ac30e1
0x7f7860ac4fdb:  41 8b f5                 movl     %r13d, %esi
0x7f7860ac4fde:  41 8b d4                 movl     %r12d, %edx
0x7f7860ac4fe1:  48 8b fd                 movq     %rbp, %rdi
0x7f7860ac4fe4:  b9 12 00 00 00           movl     $0x12, %ecx
0x7f7860ac4fe9:  4c 8d 05 2b e1 ff ff     leaq     -0x1ed5(%rip), %r8
0x7f7860ac4ff0:  ff 15 02 10 00 00        callq    *0x1002(%rip)
0x7f7860ac4ff6:  e9 20 e1 ff ff           jmp      0x7f7860ac311b
0x7f7860ac4ffb:  41 8b f6                 movl     %r14d, %esi
0x7f7860ac4ffe:  41 8b d5                 movl     %r13d, %edx
0x7f7860ac5001:  48 8b fd                 movq     %rbp, %rdi
0x7f7860ac5004:  b9 12 00 00 00           movl     $0x12, %ecx
0x7f7860ac5009:  4c 8d 05 4d e1 ff ff     leaq     -0x1eb3(%rip), %r8
0x7f7860ac5010:  ff 15 e2 0f 00 00        callq    *0xfe2(%rip)
0x7f7860ac5016:  e9 42 e1 ff ff           jmp      0x7f7860ac315d
0x7f7860ac501b:  41 8b f5                 movl     %r13d, %esi
0x7f7860ac501e:  41 8b d4                 movl     %r12d, %edx
0x7f7860ac5021:  48 8b fd                 movq     %rbp, %rdi
0x7f7860ac5024:  b9 12 00 00 00           movl     $0x12, %ecx
0x7f7860ac5029:  4c 8d 05 67 e1 ff ff     leaq     -0x1e99(%rip), %r8
0x7f7860ac5030:  ff 15 c2 0f 00 00        callq    *0xfc2(%rip)
0x7f7860ac5036:  e9 5c e1 ff ff           jmp      0x7f7860ac3197
0x7f7860ac503b:  41 8b f6                 movl     %r14d, %esi
0x7f7860ac503e:  41 8b d5                 movl     %r13d, %edx
0x7f7860ac5041:  48 8b fd                 movq     %rbp, %rdi
0x7f7860ac5044:  b9 12 00 00 00           movl     $0x12, %ecx
0x7f7860ac5049:  4c 8d 05 89 e1 ff ff     leaq     -0x1e77(%rip), %r8
0x7f7860ac5050:  ff 15 a2 0f 00 00        callq    *0xfa2(%rip)
0x7f7860ac5056:  e9 7e e1 ff ff           jmp      0x7f7860ac31d9
0x7f7860ac505b:  41 8b f5                 movl     %r13d, %esi
0x7f7860ac505e:  41 8b d4                 movl     %r12d, %edx
0x7f7860ac5061:  48 8b fd                 movq     %rbp, %rdi
0x7f7860ac5064:  b9 12 00 00 00           movl     $0x12, %ecx
0x7f7860ac5069:  4c 8d 05 a3 e1 ff ff     leaq     -0x1e5d(%rip), %r8
0x7f7860ac5070:  ff 15 82 0f 00 00        callq    *0xf82(%rip)
0x7f7860ac5076:  e9 98 e1 ff ff           jmp      0x7f7860ac3213
0x7f7860ac507b:  41 8b f6                 movl     %r14d, %esi
0x7f7860ac507e:  41 8b d5                 movl     %r13d, %edx
0x7f7860ac5081:  48 8b fd                 movq     %rbp, %rdi
0x7f7860ac5084:  b9 12 00 00 00           movl     $0x12, %ecx
0x7f7860ac5089:  4c 8d 05 c5 e1 ff ff     leaq     -0x1e3b(%rip), %r8
0x7f7860ac5090:  ff 15 62 0f 00 00        callq    *0xf62(%rip)
0x7f7860ac5096:  e9 ba e1 ff ff           jmp      0x7f7860ac3255
0x7f7860ac509b:  41 8b f5                 movl     %r13d, %esi
0x7f7860ac509e:  41 8b d4                 movl     %r12d, %edx
0x7f7860ac50a1:  48 8b fd                 movq     %rbp, %rdi
0x7f7860ac50a4:  b9 12 00 00 00           movl     $0x12, %ecx
0x7f7860ac50a9:  4c 8d 05 df e1 ff ff     leaq     -0x1e21(%rip), %r8
0x7f7860ac50b0:  ff 15 42 0f 00 00        callq    *0xf42(%rip)
0x7f7860ac50b6:  e9 d4 e1 ff ff           jmp      0x7f7860ac328f
0x7f7860ac50bb:  41 8b f6                 movl     %r14d, %esi
0x7f7860ac50be:  41 8b d5                 movl     %r13d, %edx
0x7f7860ac50c1:  48 8b fd                 movq     %rbp, %rdi
0x7f7860ac50c4:  b9 12 00 00 00           movl     $0x12, %ecx
0x7f7860ac50c9:  4c 8d 05 01 e2 ff ff     leaq     -0x1dff(%rip), %r8
0x7f7860ac50d0:  ff 15 22 0f 00 00        callq    *0xf22(%rip)
0x7f7860ac50d6:  e9 f6 e1 ff ff           jmp      0x7f7860ac32d1
0x7f7860ac50db:  41 8b f5                 movl     %r13d, %esi
0x7f7860ac50de:  41 8b d4                 movl     %r12d, %edx
0x7f7860ac50e1:  48 8b fd                 movq     %rbp, %rdi
0x7f7860ac50e4:  b9 12 00 00 00           movl     $0x12, %ecx
0x7f7860ac50e9:  4c 8d 05 1b e2 ff ff     leaq     -0x1de5(%rip), %r8
0x7f7860ac50f0:  ff 15 02 0f 00 00        callq    *0xf02(%rip)
0x7f7860ac50f6:  e9 10 e2 ff ff           jmp      0x7f7860ac330b
0x7f7860ac50fb:  41 8b f6                 movl     %r14d, %esi
0x7f7860ac50fe:  41 8b d5                 movl     %r13d, %edx
0x7f7860ac5101:  48 8b fd                 movq     %rbp, %rdi
0x7f7860ac5104:  b9 12 00 00 00           movl     $0x12, %ecx
0x7f7860ac5109:  4c 8d 05 3d e2 ff ff     leaq     -0x1dc3(%rip), %r8
0x7f7860ac5110:  ff 15 e2 0e 00 00        callq    *0xee2(%rip)
0x7f7860ac5116:  e9 32 e2 ff ff           jmp      0x7f7860ac334d
0x7f7860ac511b:  41 8b f5                 movl     %r13d, %esi
0x7f7860ac511e:  41 8b d4                 movl     %r12d, %edx
0x7f7860ac5121:  48 8b fd                 movq     %rbp, %rdi
0x7f7860ac5124:  b9 12 00 00 00           movl     $0x12, %ecx
0x7f7860ac5129:  4c 8d 05 57 e2 ff ff     leaq     -0x1da9(%rip), %r8
0x7f7860ac5130:  ff 15 c2 0e 00 00        callq    *0xec2(%rip)
0x7f7860ac5136:  e9 4c e2 ff ff           jmp      0x7f7860ac3387
0x7f7860ac513b:  41 8b f6                 movl     %r14d, %esi
0x7f7860ac513e:  41 8b d5                 movl     %r13d, %edx
0x7f7860ac5141:  48 8b fd                 movq     %rbp, %rdi
0x7f7860ac5144:  b9 12 00 00 00           movl     $0x12, %ecx
0x7f7860ac5149:  4c 8d 05 79 e2 ff ff     leaq     -0x1d87(%rip), %r8
0x7f7860ac5150:  ff 15 a2 0e 00 00        callq    *0xea2(%rip)
0x7f7860ac5156:  e9 6e e2 ff ff           jmp      0x7f7860ac33c9
0x7f7860ac515b:  41 8b f5                 movl     %r13d, %esi
0x7f7860ac515e:  41 8b d4                 movl     %r12d, %edx
0x7f7860ac5161:  48 8b fd                 movq     %rbp, %rdi
0x7f7860ac5164:  b9 12 00 00 00           movl     $0x12, %ecx
0x7f7860ac5169:  4c 8d 05 93 e2 ff ff     leaq     -0x1d6d(%rip), %r8
0x7f7860ac5170:  ff 15 82 0e 00 00        callq    *0xe82(%rip)
0x7f7860ac5176:  e9 88 e2 ff ff           jmp      0x7f7860ac3403
0x7f7860ac517b:  41 8b f6                 movl     %r14d, %esi
0x7f7860ac517e:  41 8b d5                 movl     %r13d, %edx
0x7f7860ac5181:  48 8b fd                 movq     %rbp, %rdi
0x7f7860ac5184:  b9 12 00 00 00           movl     $0x12, %ecx
0x7f7860ac5189:  4c 8d 05 b5 e2 ff ff     leaq     -0x1d4b(%rip), %r8
0x7f7860ac5190:  ff 15 62 0e 00 00        callq    *0xe62(%rip)
0x7f7860ac5196:  e9 aa e2 ff ff           jmp      0x7f7860ac3445
0x7f7860ac519b:  41 8b f5                 movl     %r13d, %esi
0x7f7860ac519e:  41 8b d4                 movl     %r12d, %edx
0x7f7860ac51a1:  48 8b fd                 movq     %rbp, %rdi
0x7f7860ac51a4:  b9 12 00 00 00           movl     $0x12, %ecx
0x7f7860ac51a9:  4c 8d 05 cf e2 ff ff     leaq     -0x1d31(%rip), %r8
0x7f7860ac51b0:  ff 15 42 0e 00 00        callq    *0xe42(%rip)
0x7f7860ac51b6:  e9 c4 e2 ff ff           jmp      0x7f7860ac347f
0x7f7860ac51bb:  41 8b f6                 movl     %r14d, %esi
0x7f7860ac51be:  41 8b d5                 movl     %r13d, %edx
0x7f7860ac51c1:  48 8b fd                 movq     %rbp, %rdi
0x7f7860ac51c4:  b9 12 00 00 00           movl     $0x12, %ecx
0x7f7860ac51c9:  4c 8d 05 f1 e2 ff ff     leaq     -0x1d0f(%rip), %r8
0x7f7860ac51d0:  ff 15 22 0e 00 00        callq    *0xe22(%rip)
0x7f7860ac51d6:  e9 e6 e2 ff ff           jmp      0x7f7860ac34c1
0x7f7860ac51db:  41 8b f5                 movl     %r13d, %esi
0x7f7860ac51de:  41 8b d4                 movl     %r12d, %edx
0x7f7860ac51e1:  48 8b fd                 movq     %rbp, %rdi
0x7f7860ac51e4:  b9 12 00 00 00           movl     $0x12, %ecx
0x7f7860ac51e9:  4c 8d 05 0b e3 ff ff     leaq     -0x1cf5(%rip), %r8
0x7f7860ac51f0:  ff 15 02 0e 00 00        callq    *0xe02(%rip)
0x7f7860ac51f6:  e9 00 e3 ff ff           jmp      0x7f7860ac34fb
0x7f7860ac51fb:  41 8b f5                 movl     %r13d, %esi
0x7f7860ac51fe:  8b d3                    movl     %ebx, %edx
0x7f7860ac5200:  48 8b fd                 movq     %rbp, %rdi
0x7f7860ac5203:  b9 22 00 00 00           movl     $0x22, %ecx
0x7f7860ac5208:  4c 8d 05 28 e3 ff ff     leaq     -0x1cd8(%rip), %r8
0x7f7860ac520f:  ff 15 db 0d 00 00        callq    *0xddb(%rip)
0x7f7860ac5215:  e9 1d e3 ff ff           jmp      0x7f7860ac3537
0x7f7860ac521a:  41 8b f5                 movl     %r13d, %esi
0x7f7860ac521d:  8b d3                    movl     %ebx, %edx
0x7f7860ac521f:  48 8b fd                 movq     %rbp, %rdi
0x7f7860ac5222:  b9 22 00 00 00           movl     $0x22, %ecx
0x7f7860ac5227:  4c 8d 05 3e e3 ff ff     leaq     -0x1cc2(%rip), %r8
0x7f7860ac522e:  ff 15 bc 0d 00 00        callq    *0xdbc(%rip)
0x7f7860ac5234:  e9 33 e3 ff ff           jmp      0x7f7860ac356c
0x7f7860ac5239:  41 8b f5                 movl     %r13d, %esi
0x7f7860ac523c:  8b d3                    movl     %ebx, %edx
0x7f7860ac523e:  48 8b fd                 movq     %rbp, %rdi
0x7f7860ac5241:  b9 22 00 00 00           movl     $0x22, %ecx
0x7f7860ac5246:  4c 8d 05 54 e3 ff ff     leaq     -0x1cac(%rip), %r8
0x7f7860ac524d:  ff 15 9d 0d 00 00        callq    *0xd9d(%rip)
0x7f7860ac5253:  e9 49 e3 ff ff           jmp      0x7f7860ac35a1
0x7f7860ac5258:  41 8b f5                 movl     %r13d, %esi
0x7f7860ac525b:  8b d3                    movl     %ebx, %edx
0x7f7860ac525d:  48 8b fd                 movq     %rbp, %rdi
0x7f7860ac5260:  b9 22 00 00 00           movl     $0x22, %ecx
0x7f7860ac5265:  4c 8d 05 6a e3 ff ff     leaq     -0x1c96(%rip), %r8
0x7f7860ac526c:  ff 15 7e 0d 00 00        callq    *0xd7e(%rip)
0x7f7860ac5272:  e9 5f e3 ff ff           jmp      0x7f7860ac35d6
0x7f7860ac5277:  41 8b f5                 movl     %r13d, %esi
0x7f7860ac527a:  8b d3                    movl     %ebx, %edx
0x7f7860ac527c:  48 8b fd                 movq     %rbp, %rdi
0x7f7860ac527f:  b9 22 00 00 00           movl     $0x22, %ecx
0x7f7860ac5284:  4c 8d 05 80 e3 ff ff     leaq     -0x1c80(%rip), %r8
0x7f7860ac528b:  ff 15 5f 0d 00 00        callq    *0xd5f(%rip)
0x7f7860ac5291:  e9 75 e3 ff ff           jmp      0x7f7860ac360b
0x7f7860ac5296:  41 8b f5                 movl     %r13d, %esi
0x7f7860ac5299:  8b d3                    movl     %ebx, %edx
0x7f7860ac529b:  48 8b fd                 movq     %rbp, %rdi
0x7f7860ac529e:  b9 22 00 00 00           movl     $0x22, %ecx
0x7f7860ac52a3:  4c 8d 05 96 e3 ff ff     leaq     -0x1c6a(%rip), %r8
0x7f7860ac52aa:  ff 15 40 0d 00 00        callq    *0xd40(%rip)
0x7f7860ac52b0:  e9 8b e3 ff ff           jmp      0x7f7860ac3640
0x7f7860ac52b5:  41 8b f5                 movl     %r13d, %esi
0x7f7860ac52b8:  8b d3                    movl     %ebx, %edx
0x7f7860ac52ba:  48 8b fd                 movq     %rbp, %rdi
0x7f7860ac52bd:  b9 22 00 00 00           movl     $0x22, %ecx
0x7f7860ac52c2:  4c 8d 05 ac e3 ff ff     leaq     -0x1c54(%rip), %r8
0x7f7860ac52c9:  ff 15 21 0d 00 00        callq    *0xd21(%rip)
0x7f7860ac52cf:  e9 a1 e3 ff ff           jmp      0x7f7860ac3675
0x7f7860ac52d4:  41 8b f5                 movl     %r13d, %esi
0x7f7860ac52d7:  8b d3                    movl     %ebx, %edx
0x7f7860ac52d9:  48 8b fd                 movq     %rbp, %rdi
0x7f7860ac52dc:  b9 22 00 00 00           movl     $0x22, %ecx
0x7f7860ac52e1:  4c 8d 05 c2 e3 ff ff     leaq     -0x1c3e(%rip), %r8
0x7f7860ac52e8:  ff 15 02 0d 00 00        callq    *0xd02(%rip)
0x7f7860ac52ee:  e9 b7 e3 ff ff           jmp      0x7f7860ac36aa
0x7f7860ac52f3:  41 8b f5                 movl     %r13d, %esi
0x7f7860ac52f6:  8b d3                    movl     %ebx, %edx
0x7f7860ac52f8:  48 8b fd                 movq     %rbp, %rdi
0x7f7860ac52fb:  b9 22 00 00 00           movl     $0x22, %ecx
0x7f7860ac5300:  4c 8d 05 d8 e3 ff ff     leaq     -0x1c28(%rip), %r8
0x7f7860ac5307:  ff 15 e3 0c 00 00        callq    *0xce3(%rip)
0x7f7860ac530d:  e9 cd e3 ff ff           jmp      0x7f7860ac36df
0x7f7860ac5312:  41 8b f5                 movl     %r13d, %esi
0x7f7860ac5315:  8b d3                    movl     %ebx, %edx
0x7f7860ac5317:  48 8b fd                 movq     %rbp, %rdi
0x7f7860ac531a:  b9 22 00 00 00           movl     $0x22, %ecx
0x7f7860ac531f:  4c 8d 05 ee e3 ff ff     leaq     -0x1c12(%rip), %r8
0x7f7860ac5326:  ff 15 c4 0c 00 00        callq    *0xcc4(%rip)
0x7f7860ac532c:  e9 e3 e3 ff ff           jmp      0x7f7860ac3714
0x7f7860ac5331:  41 8b f6                 movl     %r14d, %esi
0x7f7860ac5334:  41 8b d5                 movl     %r13d, %edx
0x7f7860ac5337:  48 8b fd                 movq     %rbp, %rdi
0x7f7860ac533a:  b9 12 00 00 00           movl     $0x12, %ecx
0x7f7860ac533f:  4c 8d 05 09 e4 ff ff     leaq     -0x1bf7(%rip), %r8
0x7f7860ac5346:  ff 15 ac 0c 00 00        callq    *0xcac(%rip)
0x7f7860ac534c:  e9 fe e3 ff ff           jmp      0x7f7860ac374f
0x7f7860ac5351:  41 8b f5                 movl     %r13d, %esi
0x7f7860ac5354:  41 8b d4                 movl     %r12d, %edx
0x7f7860ac5357:  48 8b fd                 movq     %rbp, %rdi
0x7f7860ac535a:  b9 12 00 00 00           movl     $0x12, %ecx
0x7f7860ac535f:  4c 8d 05 23 e4 ff ff     leaq     -0x1bdd(%rip), %r8
0x7f7860ac5366:  ff 15 8c 0c 00 00        callq    *0xc8c(%rip)
0x7f7860ac536c:  e9 18 e4 ff ff           jmp      0x7f7860ac3789
0x7f7860ac5371:  41 8b f6                 movl     %r14d, %esi
0x7f7860ac5374:  41 8b d5                 movl     %r13d, %edx
0x7f7860ac5377:  48 8b fd                 movq     %rbp, %rdi
0x7f7860ac537a:  b9 12 00 00 00           movl     $0x12, %ecx
0x7f7860ac537f:  4c 8d 05 45 e4 ff ff     leaq     -0x1bbb(%rip), %r8
0x7f7860ac5386:  ff 15 6c 0c 00 00        callq    *0xc6c(%rip)
0x7f7860ac538c:  e9 3a e4 ff ff           jmp      0x7f7860ac37cb
0x7f7860ac5391:  41 8b f5                 movl     %r13d, %esi
0x7f7860ac5394:  41 8b d4                 movl     %r12d, %edx
0x7f7860ac5397:  48 8b fd                 movq     %rbp, %rdi
0x7f7860ac539a:  b9 12 00 00 00           movl     $0x12, %ecx
0x7f7860ac539f:  4c 8d 05 5f e4 ff ff     leaq     -0x1ba1(%rip), %r8
0x7f7860ac53a6:  ff 15 4c 0c 00 00        callq    *0xc4c(%rip)
0x7f7860ac53ac:  e9 54 e4 ff ff           jmp      0x7f7860ac3805
0x7f7860ac53b1:  41 8b f6                 movl     %r14d, %esi
0x7f7860ac53b4:  41 8b d5                 movl     %r13d, %edx
0x7f7860ac53b7:  48 8b fd                 movq     %rbp, %rdi
0x7f7860ac53ba:  b9 12 00 00 00           movl     $0x12, %ecx
0x7f7860ac53bf:  4c 8d 05 81 e4 ff ff     leaq     -0x1b7f(%rip), %r8
0x7f7860ac53c6:  ff 15 2c 0c 00 00        callq    *0xc2c(%rip)
0x7f7860ac53cc:  e9 76 e4 ff ff           jmp      0x7f7860ac3847
0x7f7860ac53d1:  41 8b f5                 movl     %r13d, %esi
0x7f7860ac53d4:  41 8b d4                 movl     %r12d, %edx
0x7f7860ac53d7:  48 8b fd                 movq     %rbp, %rdi
0x7f7860ac53da:  b9 12 00 00 00           movl     $0x12, %ecx
0x7f7860ac53df:  4c 8d 05 9b e4 ff ff     leaq     -0x1b65(%rip), %r8
0x7f7860ac53e6:  ff 15 0c 0c 00 00        callq    *0xc0c(%rip)
0x7f7860ac53ec:  e9 90 e4 ff ff           jmp      0x7f7860ac3881
0x7f7860ac53f1:  41 8b f6                 movl     %r14d, %esi
0x7f7860ac53f4:  41 8b d5                 movl     %r13d, %edx
0x7f7860ac53f7:  48 8b fd                 movq     %rbp, %rdi
0x7f7860ac53fa:  b9 12 00 00 00           movl     $0x12, %ecx
0x7f7860ac53ff:  4c 8d 05 bd e4 ff ff     leaq     -0x1b43(%rip), %r8
0x7f7860ac5406:  ff 15 ec 0b 00 00        callq    *0xbec(%rip)
0x7f7860ac540c:  e9 b2 e4 ff ff           jmp      0x7f7860ac38c3
0x7f7860ac5411:  41 8b f5                 movl     %r13d, %esi
0x7f7860ac5414:  41 8b d4                 movl     %r12d, %edx
0x7f7860ac5417:  48 8b fd                 movq     %rbp, %rdi
0x7f7860ac541a:  b9 12 00 00 00           movl     $0x12, %ecx
0x7f7860ac541f:  4c 8d 05 d7 e4 ff ff     leaq     -0x1b29(%rip), %r8
0x7f7860ac5426:  ff 15 cc 0b 00 00        callq    *0xbcc(%rip)
0x7f7860ac542c:  e9 cc e4 ff ff           jmp      0x7f7860ac38fd
0x7f7860ac5431:  41 8b f6                 movl     %r14d, %esi
0x7f7860ac5434:  41 8b d5                 movl     %r13d, %edx
0x7f7860ac5437:  48 8b fd                 movq     %rbp, %rdi
0x7f7860ac543a:  b9 12 00 00 00           movl     $0x12, %ecx
0x7f7860ac543f:  4c 8d 05 f9 e4 ff ff     leaq     -0x1b07(%rip), %r8
0x7f7860ac5446:  ff 15 ac 0b 00 00        callq    *0xbac(%rip)
0x7f7860ac544c:  e9 ee e4 ff ff           jmp      0x7f7860ac393f
0x7f7860ac5451:  41 8b f5                 movl     %r13d, %esi
0x7f7860ac5454:  41 8b d4                 movl     %r12d, %edx
0x7f7860ac5457:  48 8b fd                 movq     %rbp, %rdi
0x7f7860ac545a:  b9 12 00 00 00           movl     $0x12, %ecx
0x7f7860ac545f:  4c 8d 05 13 e5 ff ff     leaq     -0x1aed(%rip), %r8
0x7f7860ac5466:  ff 15 8c 0b 00 00        callq    *0xb8c(%rip)
0x7f7860ac546c:  e9 08 e5 ff ff           jmp      0x7f7860ac3979
0x7f7860ac5471:  41 8b f6                 movl     %r14d, %esi
0x7f7860ac5474:  41 8b d5                 movl     %r13d, %edx
0x7f7860ac5477:  48 8b fd                 movq     %rbp, %rdi
0x7f7860ac547a:  b9 12 00 00 00           movl     $0x12, %ecx
0x7f7860ac547f:  4c 8d 05 35 e5 ff ff     leaq     -0x1acb(%rip), %r8
0x7f7860ac5486:  ff 15 6c 0b 00 00        callq    *0xb6c(%rip)
0x7f7860ac548c:  e9 2a e5 ff ff           jmp      0x7f7860ac39bb
0x7f7860ac5491:  41 8b f5                 movl     %r13d, %esi
0x7f7860ac5494:  41 8b d4                 movl     %r12d, %edx
0x7f7860ac5497:  48 8b fd                 movq     %rbp, %rdi
0x7f7860ac549a:  b9 12 00 00 00           movl     $0x12, %ecx
0x7f7860ac549f:  4c 8d 05 4f e5 ff ff     leaq     -0x1ab1(%rip), %r8
0x7f7860ac54a6:  ff 15 4c 0b 00 00        callq    *0xb4c(%rip)
0x7f7860ac54ac:  e9 44 e5 ff ff           jmp      0x7f7860ac39f5
0x7f7860ac54b1:  41 8b f6                 movl     %r14d, %esi
0x7f7860ac54b4:  41 8b d5                 movl     %r13d, %edx
0x7f7860ac54b7:  48 8b fd                 movq     %rbp, %rdi
0x7f7860ac54ba:  b9 12 00 00 00           movl     $0x12, %ecx
0x7f7860ac54bf:  4c 8d 05 71 e5 ff ff     leaq     -0x1a8f(%rip), %r8
0x7f7860ac54c6:  ff 15 2c 0b 00 00        callq    *0xb2c(%rip)
0x7f7860ac54cc:  e9 66 e5 ff ff           jmp      0x7f7860ac3a37
0x7f7860ac54d1:  41 8b f5                 movl     %r13d, %esi
0x7f7860ac54d4:  41 8b d4                 movl     %r12d, %edx
0x7f7860ac54d7:  48 8b fd                 movq     %rbp, %rdi
0x7f7860ac54da:  b9 12 00 00 00           movl     $0x12, %ecx
0x7f7860ac54df:  4c 8d 05 8b e5 ff ff     leaq     -0x1a75(%rip), %r8
0x7f7860ac54e6:  ff 15 0c 0b 00 00        callq    *0xb0c(%rip)
0x7f7860ac54ec:  e9 80 e5 ff ff           jmp      0x7f7860ac3a71
0x7f7860ac54f1:  41 8b f6                 movl     %r14d, %esi
0x7f7860ac54f4:  41 8b d5                 movl     %r13d, %edx
0x7f7860ac54f7:  48 8b fd                 movq     %rbp, %rdi
0x7f7860ac54fa:  b9 12 00 00 00           movl     $0x12, %ecx
0x7f7860ac54ff:  4c 8d 05 ad e5 ff ff     leaq     -0x1a53(%rip), %r8
0x7f7860ac5506:  ff 15 ec 0a 00 00        callq    *0xaec(%rip)
0x7f7860ac550c:  e9 a2 e5 ff ff           jmp      0x7f7860ac3ab3
0x7f7860ac5511:  41 8b f5                 movl     %r13d, %esi
0x7f7860ac5514:  41 8b d4                 movl     %r12d, %edx
0x7f7860ac5517:  48 8b fd                 movq     %rbp, %rdi
0x7f7860ac551a:  b9 12 00 00 00           movl     $0x12, %ecx
0x7f7860ac551f:  4c 8d 05 c7 e5 ff ff     leaq     -0x1a39(%rip), %r8
0x7f7860ac5526:  ff 15 cc 0a 00 00        callq    *0xacc(%rip)
0x7f7860ac552c:  e9 bc e5 ff ff           jmp      0x7f7860ac3aed
0x7f7860ac5531:  41 8b f6                 movl     %r14d, %esi
0x7f7860ac5534:  41 8b d5                 movl     %r13d, %edx
0x7f7860ac5537:  48 8b fd                 movq     %rbp, %rdi
0x7f7860ac553a:  b9 12 00 00 00           movl     $0x12, %ecx
0x7f7860ac553f:  4c 8d 05 e9 e5 ff ff     leaq     -0x1a17(%rip), %r8
0x7f7860ac5546:  ff 15 ac 0a 00 00        callq    *0xaac(%rip)
0x7f7860ac554c:  e9 de e5 ff ff           jmp      0x7f7860ac3b2f
0x7f7860ac5551:  41 8b f5                 movl     %r13d, %esi
0x7f7860ac5554:  41 8b d4                 movl     %r12d, %edx
0x7f7860ac5557:  48 8b fd                 movq     %rbp, %rdi
0x7f7860ac555a:  b9 12 00 00 00           movl     $0x12, %ecx
0x7f7860ac555f:  4c 8d 05 03 e6 ff ff     leaq     -0x19fd(%rip), %r8
0x7f7860ac5566:  ff 15 8c 0a 00 00        callq    *0xa8c(%rip)
0x7f7860ac556c:  e9 f8 e5 ff ff           jmp      0x7f7860ac3b69
0x7f7860ac5571:  41 8b f6                 movl     %r14d, %esi
0x7f7860ac5574:  41 8b d5                 movl     %r13d, %edx
0x7f7860ac5577:  48 8b fd                 movq     %rbp, %rdi
0x7f7860ac557a:  b9 12 00 00 00           movl     $0x12, %ecx
0x7f7860ac557f:  4c 8d 05 25 e6 ff ff     leaq     -0x19db(%rip), %r8
0x7f7860ac5586:  ff 15 6c 0a 00 00        callq    *0xa6c(%rip)
0x7f7860ac558c:  e9 1a e6 ff ff           jmp      0x7f7860ac3bab
0x7f7860ac5591:  41 8b f5                 movl     %r13d, %esi
0x7f7860ac5594:  41 8b d4                 movl     %r12d, %edx
0x7f7860ac5597:  48 8b fd                 movq     %rbp, %rdi
0x7f7860ac559a:  b9 12 00 00 00           movl     $0x12, %ecx
0x7f7860ac559f:  4c 8d 05 52 e6 ff ff     leaq     -0x19ae(%rip), %r8
0x7f7860ac55a6:  ff 15 4c 0a 00 00        callq    *0xa4c(%rip)
0x7f7860ac55ac:  e9 47 e6 ff ff           jmp      0x7f7860ac3bf8
0x7f7860ac55b1:  41 8b f6                 movl     %r14d, %esi
0x7f7860ac55b4:  41 8b d5                 movl     %r13d, %edx
0x7f7860ac55b7:  48 8b fd                 movq     %rbp, %rdi
0x7f7860ac55ba:  b9 12 00 00 00           movl     $0x12, %ecx
0x7f7860ac55bf:  4c 8d 05 74 e6 ff ff     leaq     -0x198c(%rip), %r8
0x7f7860ac55c6:  ff 15 2c 0a 00 00        callq    *0xa2c(%rip)
0x7f7860ac55cc:  e9 69 e6 ff ff           jmp      0x7f7860ac3c3a
0x7f7860ac55d1:  41 8b f5                 movl     %r13d, %esi
0x7f7860ac55d4:  41 8b d4                 movl     %r12d, %edx
0x7f7860ac55d7:  48 8b fd                 movq     %rbp, %rdi
0x7f7860ac55da:  b9 12 00 00 00           movl     $0x12, %ecx
0x7f7860ac55df:  4c 8d 05 99 e6 ff ff     leaq     -0x1967(%rip), %r8
0x7f7860ac55e6:  ff 15 0c 0a 00 00        callq    *0xa0c(%rip)
0x7f7860ac55ec:  e9 8e e6 ff ff           jmp      0x7f7860ac3c7f
0x7f7860ac55f1:  41 8b f5                 movl     %r13d, %esi
0x7f7860ac55f4:  8b d3                    movl     %ebx, %edx
0x7f7860ac55f6:  48 8b fd                 movq     %rbp, %rdi
0x7f7860ac55f9:  b9 22 00 00 00           movl     $0x22, %ecx
0x7f7860ac55fe:  4c 8d 05 b6 e6 ff ff     leaq     -0x194a(%rip), %r8
0x7f7860ac5605:  ff 15 e5 09 00 00        callq    *0x9e5(%rip)
0x7f7860ac560b:  e9 ab e6 ff ff           jmp      0x7f7860ac3cbb
0x7f7860ac5610:  41 8b f5                 movl     %r13d, %esi
0x7f7860ac5613:  8b d3                    movl     %ebx, %edx
0x7f7860ac5615:  48 8b fd                 movq     %rbp, %rdi
0x7f7860ac5618:  b9 22 00 00 00           movl     $0x22, %ecx
0x7f7860ac561d:  4c 8d 05 cc e6 ff ff     leaq     -0x1934(%rip), %r8
0x7f7860ac5624:  ff 15 c6 09 00 00        callq    *0x9c6(%rip)
0x7f7860ac562a:  e9 c1 e6 ff ff           jmp      0x7f7860ac3cf0
0x7f7860ac562f:  41 8b f5                 movl     %r13d, %esi
0x7f7860ac5632:  8b d3                    movl     %ebx, %edx
0x7f7860ac5634:  48 8b fd                 movq     %rbp, %rdi
0x7f7860ac5637:  b9 22 00 00 00           movl     $0x22, %ecx
0x7f7860ac563c:  4c 8d 05 e2 e6 ff ff     leaq     -0x191e(%rip), %r8
0x7f7860ac5643:  ff 15 a7 09 00 00        callq    *0x9a7(%rip)
0x7f7860ac5649:  e9 d7 e6 ff ff           jmp      0x7f7860ac3d25
0x7f7860ac564e:  41 8b f5                 movl     %r13d, %esi
0x7f7860ac5651:  8b d3                    movl     %ebx, %edx
0x7f7860ac5653:  48 8b fd                 movq     %rbp, %rdi
0x7f7860ac5656:  b9 22 00 00 00           movl     $0x22, %ecx
0x7f7860ac565b:  4c 8d 05 f8 e6 ff ff     leaq     -0x1908(%rip), %r8
0x7f7860ac5662:  ff 15 88 09 00 00        callq    *0x988(%rip)
0x7f7860ac5668:  e9 ed e6 ff ff           jmp      0x7f7860ac3d5a
0x7f7860ac566d:  41 8b f5                 movl     %r13d, %esi
0x7f7860ac5670:  8b d3                    movl     %ebx, %edx
0x7f7860ac5672:  48 8b fd                 movq     %rbp, %rdi
0x7f7860ac5675:  b9 22 00 00 00           movl     $0x22, %ecx
0x7f7860ac567a:  4c 8d 05 0e e7 ff ff     leaq     -0x18f2(%rip), %r8
0x7f7860ac5681:  ff 15 69 09 00 00        callq    *0x969(%rip)
0x7f7860ac5687:  e9 03 e7 ff ff           jmp      0x7f7860ac3d8f
0x7f7860ac568c:  41 8b f5                 movl     %r13d, %esi
0x7f7860ac568f:  8b d3                    movl     %ebx, %edx
0x7f7860ac5691:  48 8b fd                 movq     %rbp, %rdi
0x7f7860ac5694:  b9 22 00 00 00           movl     $0x22, %ecx
0x7f7860ac5699:  4c 8d 05 24 e7 ff ff     leaq     -0x18dc(%rip), %r8
0x7f7860ac56a0:  ff 15 4a 09 00 00        callq    *0x94a(%rip)
0x7f7860ac56a6:  e9 19 e7 ff ff           jmp      0x7f7860ac3dc4
0x7f7860ac56ab:  41 8b f5                 movl     %r13d, %esi
0x7f7860ac56ae:  8b d3                    movl     %ebx, %edx
0x7f7860ac56b0:  48 8b fd                 movq     %rbp, %rdi
0x7f7860ac56b3:  b9 22 00 00 00           movl     $0x22, %ecx
0x7f7860ac56b8:  4c 8d 05 3a e7 ff ff     leaq     -0x18c6(%rip), %r8
0x7f7860ac56bf:  ff 15 2b 09 00 00        callq    *0x92b(%rip)
0x7f7860ac56c5:  e9 2f e7 ff ff           jmp      0x7f7860ac3df9
0x7f7860ac56ca:  41 8b f5                 movl     %r13d, %esi
0x7f7860ac56cd:  8b d3                    movl     %ebx, %edx
0x7f7860ac56cf:  48 8b fd                 movq     %rbp, %rdi
0x7f7860ac56d2:  b9 22 00 00 00           movl     $0x22, %ecx
0x7f7860ac56d7:  4c 8d 05 50 e7 ff ff     leaq     -0x18b0(%rip), %r8
0x7f7860ac56de:  ff 15 0c 09 00 00        callq    *0x90c(%rip)
0x7f7860ac56e4:  e9 45 e7 ff ff           jmp      0x7f7860ac3e2e
0x7f7860ac56e9:  41 8b f5                 movl     %r13d, %esi
0x7f7860ac56ec:  8b d3                    movl     %ebx, %edx
0x7f7860ac56ee:  48 8b fd                 movq     %rbp, %rdi
0x7f7860ac56f1:  b9 22 00 00 00           movl     $0x22, %ecx
0x7f7860ac56f6:  4c 8d 05 66 e7 ff ff     leaq     -0x189a(%rip), %r8
0x7f7860ac56fd:  ff 15 ed 08 00 00        callq    *0x8ed(%rip)
0x7f7860ac5703:  e9 5b e7 ff ff           jmp      0x7f7860ac3e63
0x7f7860ac5708:  41 8b f5                 movl     %r13d, %esi
0x7f7860ac570b:  8b d3                    movl     %ebx, %edx
0x7f7860ac570d:  48 8b fd                 movq     %rbp, %rdi
0x7f7860ac5710:  b9 22 00 00 00           movl     $0x22, %ecx
0x7f7860ac5715:  4c 8d 05 7c e7 ff ff     leaq     -0x1884(%rip), %r8
0x7f7860ac571c:  ff 15 ce 08 00 00        callq    *0x8ce(%rip)
0x7f7860ac5722:  e9 71 e7 ff ff           jmp      0x7f7860ac3e98
0x7f7860ac5727:  41 8b f5                 movl     %r13d, %esi
0x7f7860ac572a:  8b d3                    movl     %ebx, %edx
0x7f7860ac572c:  48 8b fd                 movq     %rbp, %rdi
0x7f7860ac572f:  b9 22 00 00 00           movl     $0x22, %ecx
0x7f7860ac5734:  4c 8d 05 92 e7 ff ff     leaq     -0x186e(%rip), %r8
0x7f7860ac573b:  ff 15 af 08 00 00        callq    *0x8af(%rip)
0x7f7860ac5741:  e9 87 e7 ff ff           jmp      0x7f7860ac3ecd
0x7f7860ac5746:  41 8b f6                 movl     %r14d, %esi
0x7f7860ac5749:  41 8b d5                 movl     %r13d, %edx
0x7f7860ac574c:  48 8b fd                 movq     %rbp, %rdi
0x7f7860ac574f:  b9 12 00 00 00           movl     $0x12, %ecx
0x7f7860ac5754:  4c 8d 05 ad e7 ff ff     leaq     -0x1853(%rip), %r8
0x7f7860ac575b:  ff 15 97 08 00 00        callq    *0x897(%rip)
0x7f7860ac5761:  e9 a2 e7 ff ff           jmp      0x7f7860ac3f08
0x7f7860ac5766:  41 8b f5                 movl     %r13d, %esi
0x7f7860ac5769:  41 8b d4                 movl     %r12d, %edx
0x7f7860ac576c:  48 8b fd                 movq     %rbp, %rdi
0x7f7860ac576f:  b9 12 00 00 00           movl     $0x12, %ecx
0x7f7860ac5774:  4c 8d 05 c7 e7 ff ff     leaq     -0x1839(%rip), %r8
0x7f7860ac577b:  ff 15 77 08 00 00        callq    *0x877(%rip)
0x7f7860ac5781:  e9 bc e7 ff ff           jmp      0x7f7860ac3f42
0x7f7860ac5786:  41 8b f6                 movl     %r14d, %esi
0x7f7860ac5789:  41 8b d5                 movl     %r13d, %edx
0x7f7860ac578c:  48 8b fd                 movq     %rbp, %rdi
0x7f7860ac578f:  b9 12 00 00 00           movl     $0x12, %ecx
0x7f7860ac5794:  4c 8d 05 e9 e7 ff ff     leaq     -0x1817(%rip), %r8
0x7f7860ac579b:  ff 15 57 08 00 00        callq    *0x857(%rip)
0x7f7860ac57a1:  e9 de e7 ff ff           jmp      0x7f7860ac3f84
0x7f7860ac57a6:  41 8b f5                 movl     %r13d, %esi
0x7f7860ac57a9:  41 8b d4                 movl     %r12d, %edx
0x7f7860ac57ac:  48 8b fd                 movq     %rbp, %rdi
0x7f7860ac57af:  b9 12 00 00 00           movl     $0x12, %ecx
0x7f7860ac57b4:  4c 8d 05 03 e8 ff ff     leaq     -0x17fd(%rip), %r8
0x7f7860ac57bb:  ff 15 37 08 00 00        callq    *0x837(%rip)
0x7f7860ac57c1:  e9 f8 e7 ff ff           jmp      0x7f7860ac3fbe
0x7f7860ac57c6:  41 8b f6                 movl     %r14d, %esi
0x7f7860ac57c9:  41 8b d5                 movl     %r13d, %edx
0x7f7860ac57cc:  48 8b fd                 movq     %rbp, %rdi
0x7f7860ac57cf:  b9 12 00 00 00           movl     $0x12, %ecx
0x7f7860ac57d4:  4c 8d 05 25 e8 ff ff     leaq     -0x17db(%rip), %r8
0x7f7860ac57db:  ff 15 17 08 00 00        callq    *0x817(%rip)
0x7f7860ac57e1:  e9 1a e8 ff ff           jmp      0x7f7860ac4000
0x7f7860ac57e6:  41 8b f5                 movl     %r13d, %esi
0x7f7860ac57e9:  41 8b d4                 movl     %r12d, %edx
0x7f7860ac57ec:  48 8b fd                 movq     %rbp, %rdi
0x7f7860ac57ef:  b9 12 00 00 00           movl     $0x12, %ecx
0x7f7860ac57f4:  4c 8d 05 3f e8 ff ff     leaq     -0x17c1(%rip), %r8
0x7f7860ac57fb:  ff 15 f7 07 00 00        callq    *0x7f7(%rip)
0x7f7860ac5801:  e9 34 e8 ff ff           jmp      0x7f7860ac403a
0x7f7860ac5806:  41 8b f6                 movl     %r14d, %esi
0x7f7860ac5809:  41 8b d5                 movl     %r13d, %edx
0x7f7860ac580c:  48 8b fd                 movq     %rbp, %rdi
0x7f7860ac580f:  b9 12 00 00 00           movl     $0x12, %ecx
0x7f7860ac5814:  4c 8d 05 61 e8 ff ff     leaq     -0x179f(%rip), %r8
0x7f7860ac581b:  ff 15 d7 07 00 00        callq    *0x7d7(%rip)
0x7f7860ac5821:  e9 56 e8 ff ff           jmp      0x7f7860ac407c
0x7f7860ac5826:  41 8b f5                 movl     %r13d, %esi
0x7f7860ac5829:  41 8b d4                 movl     %r12d, %edx
0x7f7860ac582c:  48 8b fd                 movq     %rbp, %rdi
0x7f7860ac582f:  b9 12 00 00 00           movl     $0x12, %ecx
0x7f7860ac5834:  4c 8d 05 7b e8 ff ff     leaq     -0x1785(%rip), %r8
0x7f7860ac583b:  ff 15 b7 07 00 00        callq    *0x7b7(%rip)
0x7f7860ac5841:  e9 70 e8 ff ff           jmp      0x7f7860ac40b6
0x7f7860ac5846:  41 8b f6                 movl     %r14d, %esi
0x7f7860ac5849:  41 8b d5                 movl     %r13d, %edx
0x7f7860ac584c:  48 8b fd                 movq     %rbp, %rdi
0x7f7860ac584f:  b9 12 00 00 00           movl     $0x12, %ecx
0x7f7860ac5854:  4c 8d 05 9d e8 ff ff     leaq     -0x1763(%rip), %r8
0x7f7860ac585b:  ff 15 97 07 00 00        callq    *0x797(%rip)
0x7f7860ac5861:  e9 92 e8 ff ff           jmp      0x7f7860ac40f8
0x7f7860ac5866:  41 8b f5                 movl     %r13d, %esi
0x7f7860ac5869:  41 8b d4                 movl     %r12d, %edx
0x7f7860ac586c:  48 8b fd                 movq     %rbp, %rdi
0x7f7860ac586f:  b9 12 00 00 00           movl     $0x12, %ecx
0x7f7860ac5874:  4c 8d 05 b7 e8 ff ff     leaq     -0x1749(%rip), %r8
0x7f7860ac587b:  ff 15 77 07 00 00        callq    *0x777(%rip)
0x7f7860ac5881:  e9 ac e8 ff ff           jmp      0x7f7860ac4132
0x7f7860ac5886:  41 8b f6                 movl     %r14d, %esi
0x7f7860ac5889:  41 8b d5                 movl     %r13d, %edx
0x7f7860ac588c:  48 8b fd                 movq     %rbp, %rdi
0x7f7860ac588f:  b9 12 00 00 00           movl     $0x12, %ecx
0x7f7860ac5894:  4c 8d 05 d9 e8 ff ff     leaq     -0x1727(%rip), %r8
0x7f7860ac589b:  ff 15 57 07 00 00        callq    *0x757(%rip)
0x7f7860ac58a1:  e9 ce e8 ff ff           jmp      0x7f7860ac4174
0x7f7860ac58a6:  41 8b f5                 movl     %r13d, %esi
0x7f7860ac58a9:  41 8b d4                 movl     %r12d, %edx
0x7f7860ac58ac:  48 8b fd                 movq     %rbp, %rdi
0x7f7860ac58af:  b9 12 00 00 00           movl     $0x12, %ecx
0x7f7860ac58b4:  4c 8d 05 f3 e8 ff ff     leaq     -0x170d(%rip), %r8
0x7f7860ac58bb:  ff 15 37 07 00 00        callq    *0x737(%rip)
0x7f7860ac58c1:  e9 e8 e8 ff ff           jmp      0x7f7860ac41ae
0x7f7860ac58c6:  41 8b f6                 movl     %r14d, %esi
0x7f7860ac58c9:  41 8b d5                 movl     %r13d, %edx
0x7f7860ac58cc:  48 8b fd                 movq     %rbp, %rdi
0x7f7860ac58cf:  b9 12 00 00 00           movl     $0x12, %ecx
0x7f7860ac58d4:  4c 8d 05 15 e9 ff ff     leaq     -0x16eb(%rip), %r8
0x7f7860ac58db:  ff 15 17 07 00 00        callq    *0x717(%rip)
0x7f7860ac58e1:  e9 0a e9 ff ff           jmp      0x7f7860ac41f0
0x7f7860ac58e6:  41 8b f5                 movl     %r13d, %esi
0x7f7860ac58e9:  41 8b d4                 movl     %r12d, %edx
0x7f7860ac58ec:  48 8b fd                 movq     %rbp, %rdi
0x7f7860ac58ef:  b9 12 00 00 00           movl     $0x12, %ecx
0x7f7860ac58f4:  4c 8d 05 2f e9 ff ff     leaq     -0x16d1(%rip), %r8
0x7f7860ac58fb:  ff 15 f7 06 00 00        callq    *0x6f7(%rip)
0x7f7860ac5901:  e9 24 e9 ff ff           jmp      0x7f7860ac422a
0x7f7860ac5906:  41 8b f6                 movl     %r14d, %esi
0x7f7860ac5909:  41 8b d5                 movl     %r13d, %edx
0x7f7860ac590c:  48 8b fd                 movq     %rbp, %rdi
0x7f7860ac590f:  b9 12 00 00 00           movl     $0x12, %ecx
0x7f7860ac5914:  4c 8d 05 51 e9 ff ff     leaq     -0x16af(%rip), %r8
0x7f7860ac591b:  ff 15 d7 06 00 00        callq    *0x6d7(%rip)
0x7f7860ac5921:  e9 46 e9 ff ff           jmp      0x7f7860ac426c
0x7f7860ac5926:  41 8b f5                 movl     %r13d, %esi
0x7f7860ac5929:  41 8b d4                 movl     %r12d, %edx
0x7f7860ac592c:  48 8b fd                 movq     %rbp, %rdi
0x7f7860ac592f:  b9 12 00 00 00           movl     $0x12, %ecx
0x7f7860ac5934:  4c 8d 05 6b e9 ff ff     leaq     -0x1695(%rip), %r8
0x7f7860ac593b:  ff 15 b7 06 00 00        callq    *0x6b7(%rip)
0x7f7860ac5941:  e9 60 e9 ff ff           jmp      0x7f7860ac42a6
0x7f7860ac5946:  41 8b f6                 movl     %r14d, %esi
0x7f7860ac5949:  41 8b d5                 movl     %r13d, %edx
0x7f7860ac594c:  48 8b fd                 movq     %rbp, %rdi
0x7f7860ac594f:  b9 12 00 00 00           movl     $0x12, %ecx
0x7f7860ac5954:  4c 8d 05 8d e9 ff ff     leaq     -0x1673(%rip), %r8
0x7f7860ac595b:  ff 15 97 06 00 00        callq    *0x697(%rip)
0x7f7860ac5961:  e9 82 e9 ff ff           jmp      0x7f7860ac42e8
0x7f7860ac5966:  41 8b f5                 movl     %r13d, %esi
0x7f7860ac5969:  41 8b d4                 movl     %r12d, %edx
0x7f7860ac596c:  48 8b fd                 movq     %rbp, %rdi
0x7f7860ac596f:  b9 12 00 00 00           movl     $0x12, %ecx
0x7f7860ac5974:  4c 8d 05 a7 e9 ff ff     leaq     -0x1659(%rip), %r8
0x7f7860ac597b:  ff 15 77 06 00 00        callq    *0x677(%rip)
0x7f7860ac5981:  e9 9c e9 ff ff           jmp      0x7f7860ac4322
0x7f7860ac5986:  41 8b f6                 movl     %r14d, %esi
0x7f7860ac5989:  41 8b d5                 movl     %r13d, %edx
0x7f7860ac598c:  48 8b fd                 movq     %rbp, %rdi
0x7f7860ac598f:  b9 12 00 00 00           movl     $0x12, %ecx
0x7f7860ac5994:  4c 8d 05 c9 e9 ff ff     leaq     -0x1637(%rip), %r8
0x7f7860ac599b:  ff 15 57 06 00 00        callq    *0x657(%rip)
0x7f7860ac59a1:  e9 be e9 ff ff           jmp      0x7f7860ac4364
0x7f7860ac59a6:  41 8b f5                 movl     %r13d, %esi
0x7f7860ac59a9:  41 8b d4                 movl     %r12d, %edx
0x7f7860ac59ac:  48 8b fd                 movq     %rbp, %rdi
0x7f7860ac59af:  b9 12 00 00 00           movl     $0x12, %ecx
0x7f7860ac59b4:  4c 8d 05 e3 e9 ff ff     leaq     -0x161d(%rip), %r8
0x7f7860ac59bb:  ff 15 37 06 00 00        callq    *0x637(%rip)
0x7f7860ac59c1:  e9 d8 e9 ff ff           jmp      0x7f7860ac439e
0x7f7860ac59c6:  41 8b f6                 movl     %r14d, %esi
0x7f7860ac59c9:  41 8b d5                 movl     %r13d, %edx
0x7f7860ac59cc:  48 8b fd                 movq     %rbp, %rdi
0x7f7860ac59cf:  b9 12 00 00 00           movl     $0x12, %ecx
0x7f7860ac59d4:  4c 8d 05 05 ea ff ff     leaq     -0x15fb(%rip), %r8
0x7f7860ac59db:  ff 15 17 06 00 00        callq    *0x617(%rip)
0x7f7860ac59e1:  e9 fa e9 ff ff           jmp      0x7f7860ac43e0
0x7f7860ac59e6:  41 8b f5                 movl     %r13d, %esi
0x7f7860ac59e9:  41 8b d4                 movl     %r12d, %edx
0x7f7860ac59ec:  48 8b fd                 movq     %rbp, %rdi
0x7f7860ac59ef:  b9 12 00 00 00           movl     $0x12, %ecx
0x7f7860ac59f4:  4c 8d 05 1f ea ff ff     leaq     -0x15e1(%rip), %r8
0x7f7860ac59fb:  ff 15 f7 05 00 00        callq    *0x5f7(%rip)
0x7f7860ac5a01:  e9 14 ea ff ff           jmp      0x7f7860ac441a
0x7f7860ac5a06:  41 8b f5                 movl     %r13d, %esi
0x7f7860ac5a09:  8b d3                    movl     %ebx, %edx
0x7f7860ac5a0b:  48 8b fd                 movq     %rbp, %rdi
0x7f7860ac5a0e:  b9 22 00 00 00           movl     $0x22, %ecx
0x7f7860ac5a13:  4c 8d 05 3c ea ff ff     leaq     -0x15c4(%rip), %r8
0x7f7860ac5a1a:  ff 15 d0 05 00 00        callq    *0x5d0(%rip)
0x7f7860ac5a20:  e9 31 ea ff ff           jmp      0x7f7860ac4456
0x7f7860ac5a25:  41 8b f5                 movl     %r13d, %esi
0x7f7860ac5a28:  8b d3                    movl     %ebx, %edx
0x7f7860ac5a2a:  48 8b fd                 movq     %rbp, %rdi
0x7f7860ac5a2d:  b9 22 00 00 00           movl     $0x22, %ecx
0x7f7860ac5a32:  4c 8d 05 52 ea ff ff     leaq     -0x15ae(%rip), %r8
0x7f7860ac5a39:  ff 15 b1 05 00 00        callq    *0x5b1(%rip)
0x7f7860ac5a3f:  e9 47 ea ff ff           jmp      0x7f7860ac448b
0x7f7860ac5a44:  41 8b f5                 movl     %r13d, %esi
0x7f7860ac5a47:  8b d3                    movl     %ebx, %edx
0x7f7860ac5a49:  48 8b fd                 movq     %rbp, %rdi
0x7f7860ac5a4c:  b9 22 00 00 00           movl     $0x22, %ecx
0x7f7860ac5a51:  4c 8d 05 68 ea ff ff     leaq     -0x1598(%rip), %r8
0x7f7860ac5a58:  ff 15 92 05 00 00        callq    *0x592(%rip)
0x7f7860ac5a5e:  e9 5d ea ff ff           jmp      0x7f7860ac44c0
0x7f7860ac5a63:  41 8b f5                 movl     %r13d, %esi
0x7f7860ac5a66:  8b d3                    movl     %ebx, %edx
0x7f7860ac5a68:  48 8b fd                 movq     %rbp, %rdi
0x7f7860ac5a6b:  b9 22 00 00 00           movl     $0x22, %ecx
0x7f7860ac5a70:  4c 8d 05 7e ea ff ff     leaq     -0x1582(%rip), %r8
0x7f7860ac5a77:  ff 15 73 05 00 00        callq    *0x573(%rip)
0x7f7860ac5a7d:  e9 73 ea ff ff           jmp      0x7f7860ac44f5
0x7f7860ac5a82:  41 8b f5                 movl     %r13d, %esi
0x7f7860ac5a85:  8b d3                    movl     %ebx, %edx
0x7f7860ac5a87:  48 8b fd                 movq     %rbp, %rdi
0x7f7860ac5a8a:  b9 22 00 00 00           movl     $0x22, %ecx
0x7f7860ac5a8f:  4c 8d 05 94 ea ff ff     leaq     -0x156c(%rip), %r8
0x7f7860ac5a96:  ff 15 54 05 00 00        callq    *0x554(%rip)
0x7f7860ac5a9c:  e9 89 ea ff ff           jmp      0x7f7860ac452a
0x7f7860ac5aa1:  41 8b f5                 movl     %r13d, %esi
0x7f7860ac5aa4:  8b d3                    movl     %ebx, %edx
0x7f7860ac5aa6:  48 8b fd                 movq     %rbp, %rdi
0x7f7860ac5aa9:  b9 22 00 00 00           movl     $0x22, %ecx
0x7f7860ac5aae:  4c 8d 05 aa ea ff ff     leaq     -0x1556(%rip), %r8
0x7f7860ac5ab5:  ff 15 35 05 00 00        callq    *0x535(%rip)
0x7f7860ac5abb:  e9 9f ea ff ff           jmp      0x7f7860ac455f
0x7f7860ac5ac0:  41 8b f5                 movl     %r13d, %esi
0x7f7860ac5ac3:  8b d3                    movl     %ebx, %edx
0x7f7860ac5ac5:  48 8b fd                 movq     %rbp, %rdi
0x7f7860ac5ac8:  b9 22 00 00 00           movl     $0x22, %ecx
0x7f7860ac5acd:  4c 8d 05 c0 ea ff ff     leaq     -0x1540(%rip), %r8
0x7f7860ac5ad4:  ff 15 16 05 00 00        callq    *0x516(%rip)
0x7f7860ac5ada:  e9 b5 ea ff ff           jmp      0x7f7860ac4594
0x7f7860ac5adf:  41 8b f5                 movl     %r13d, %esi
0x7f7860ac5ae2:  8b d3                    movl     %ebx, %edx
0x7f7860ac5ae4:  48 8b fd                 movq     %rbp, %rdi
0x7f7860ac5ae7:  b9 22 00 00 00           movl     $0x22, %ecx
0x7f7860ac5aec:  4c 8d 05 d6 ea ff ff     leaq     -0x152a(%rip), %r8
0x7f7860ac5af3:  ff 15 f7 04 00 00        callq    *0x4f7(%rip)
0x7f7860ac5af9:  e9 cb ea ff ff           jmp      0x7f7860ac45c9
0x7f7860ac5afe:  41 8b f5                 movl     %r13d, %esi
0x7f7860ac5b01:  8b d3                    movl     %ebx, %edx
0x7f7860ac5b03:  48 8b fd                 movq     %rbp, %rdi
0x7f7860ac5b06:  b9 22 00 00 00           movl     $0x22, %ecx
0x7f7860ac5b0b:  4c 8d 05 ec ea ff ff     leaq     -0x1514(%rip), %r8
0x7f7860ac5b12:  ff 15 d8 04 00 00        callq    *0x4d8(%rip)
0x7f7860ac5b18:  e9 e1 ea ff ff           jmp      0x7f7860ac45fe
0x7f7860ac5b1d:  41 8b f5                 movl     %r13d, %esi
0x7f7860ac5b20:  8b d3                    movl     %ebx, %edx
0x7f7860ac5b22:  48 8b fd                 movq     %rbp, %rdi
0x7f7860ac5b25:  b9 22 00 00 00           movl     $0x22, %ecx
0x7f7860ac5b2a:  4c 8d 05 02 eb ff ff     leaq     -0x14fe(%rip), %r8
0x7f7860ac5b31:  ff 15 b9 04 00 00        callq    *0x4b9(%rip)
0x7f7860ac5b37:  e9 f7 ea ff ff           jmp      0x7f7860ac4633
0x7f7860ac5b3c:  41 8b f5                 movl     %r13d, %esi
0x7f7860ac5b3f:  8b d3                    movl     %ebx, %edx
0x7f7860ac5b41:  48 8b fd                 movq     %rbp, %rdi
0x7f7860ac5b44:  b9 22 00 00 00           movl     $0x22, %ecx
0x7f7860ac5b49:  4c 8d 05 18 eb ff ff     leaq     -0x14e8(%rip), %r8
0x7f7860ac5b50:  ff 15 9a 04 00 00        callq    *0x49a(%rip)
0x7f7860ac5b56:  e9 0d eb ff ff           jmp      0x7f7860ac4668
0x7f7860ac5b5b:  41 8b f6                 movl     %r14d, %esi
0x7f7860ac5b5e:  41 8b d5                 movl     %r13d, %edx
0x7f7860ac5b61:  48 8b fd                 movq     %rbp, %rdi
0x7f7860ac5b64:  b9 12 00 00 00           movl     $0x12, %ecx
0x7f7860ac5b69:  4c 8d 05 33 eb ff ff     leaq     -0x14cd(%rip), %r8
0x7f7860ac5b70:  ff 15 82 04 00 00        callq    *0x482(%rip)
0x7f7860ac5b76:  e9 28 eb ff ff           jmp      0x7f7860ac46a3
0x7f7860ac5b7b:  41 8b f5                 movl     %r13d, %esi
0x7f7860ac5b7e:  41 8b d4                 movl     %r12d, %edx
0x7f7860ac5b81:  48 8b fd                 movq     %rbp, %rdi
0x7f7860ac5b84:  b9 12 00 00 00           movl     $0x12, %ecx
0x7f7860ac5b89:  4c 8d 05 4d eb ff ff     leaq     -0x14b3(%rip), %r8
0x7f7860ac5b90:  ff 15 62 04 00 00        callq    *0x462(%rip)
0x7f7860ac5b96:  e9 42 eb ff ff           jmp      0x7f7860ac46dd
0x7f7860ac5b9b:  41 8b f6                 movl     %r14d, %esi
0x7f7860ac5b9e:  41 8b d5                 movl     %r13d, %edx
0x7f7860ac5ba1:  48 8b fd                 movq     %rbp, %rdi
0x7f7860ac5ba4:  b9 12 00 00 00           movl     $0x12, %ecx
0x7f7860ac5ba9:  4c 8d 05 6f eb ff ff     leaq     -0x1491(%rip), %r8
0x7f7860ac5bb0:  ff 15 42 04 00 00        callq    *0x442(%rip)
0x7f7860ac5bb6:  e9 64 eb ff ff           jmp      0x7f7860ac471f
0x7f7860ac5bbb:  41 8b f5                 movl     %r13d, %esi
0x7f7860ac5bbe:  41 8b d4                 movl     %r12d, %edx
0x7f7860ac5bc1:  48 8b fd                 movq     %rbp, %rdi
0x7f7860ac5bc4:  b9 12 00 00 00           movl     $0x12, %ecx
0x7f7860ac5bc9:  4c 8d 05 89 eb ff ff     leaq     -0x1477(%rip), %r8
0x7f7860ac5bd0:  ff 15 22 04 00 00        callq    *0x422(%rip)
0x7f7860ac5bd6:  e9 7e eb ff ff           jmp      0x7f7860ac4759
0x7f7860ac5bdb:  41 8b f6                 movl     %r14d, %esi
0x7f7860ac5bde:  41 8b d5                 movl     %r13d, %edx
0x7f7860ac5be1:  48 8b fd                 movq     %rbp, %rdi
0x7f7860ac5be4:  b9 12 00 00 00           movl     $0x12, %ecx
0x7f7860ac5be9:  4c 8d 05 ab eb ff ff     leaq     -0x1455(%rip), %r8
0x7f7860ac5bf0:  ff 15 02 04 00 00        callq    *0x402(%rip)
0x7f7860ac5bf6:  e9 a0 eb ff ff           jmp      0x7f7860ac479b
0x7f7860ac5bfb:  41 8b f5                 movl     %r13d, %esi
0x7f7860ac5bfe:  41 8b d4                 movl     %r12d, %edx
0x7f7860ac5c01:  48 8b fd                 movq     %rbp, %rdi
0x7f7860ac5c04:  b9 12 00 00 00           movl     $0x12, %ecx
0x7f7860ac5c09:  4c 8d 05 c5 eb ff ff     leaq     -0x143b(%rip), %r8
0x7f7860ac5c10:  ff 15 e2 03 00 00        callq    *0x3e2(%rip)
0x7f7860ac5c16:  e9 ba eb ff ff           jmp      0x7f7860ac47d5
0x7f7860ac5c1b:  41 8b f6                 movl     %r14d, %esi
0x7f7860ac5c1e:  41 8b d5                 movl     %r13d, %edx
0x7f7860ac5c21:  48 8b fd                 movq     %rbp, %rdi
0x7f7860ac5c24:  b9 12 00 00 00           movl     $0x12, %ecx
0x7f7860ac5c29:  4c 8d 05 e7 eb ff ff     leaq     -0x1419(%rip), %r8
0x7f7860ac5c30:  ff 15 c2 03 00 00        callq    *0x3c2(%rip)
0x7f7860ac5c36:  e9 dc eb ff ff           jmp      0x7f7860ac4817
0x7f7860ac5c3b:  41 8b f5                 movl     %r13d, %esi
0x7f7860ac5c3e:  41 8b d4                 movl     %r12d, %edx
0x7f7860ac5c41:  48 8b fd                 movq     %rbp, %rdi
0x7f7860ac5c44:  b9 12 00 00 00           movl     $0x12, %ecx
0x7f7860ac5c49:  4c 8d 05 01 ec ff ff     leaq     -0x13ff(%rip), %r8
0x7f7860ac5c50:  ff 15 a2 03 00 00        callq    *0x3a2(%rip)
0x7f7860ac5c56:  e9 f6 eb ff ff           jmp      0x7f7860ac4851
0x7f7860ac5c5b:  41 8b f6                 movl     %r14d, %esi
0x7f7860ac5c5e:  41 8b d5                 movl     %r13d, %edx
0x7f7860ac5c61:  48 8b fd                 movq     %rbp, %rdi
0x7f7860ac5c64:  b9 12 00 00 00           movl     $0x12, %ecx
0x7f7860ac5c69:  4c 8d 05 23 ec ff ff     leaq     -0x13dd(%rip), %r8
0x7f7860ac5c70:  ff 15 82 03 00 00        callq    *0x382(%rip)
0x7f7860ac5c76:  e9 18 ec ff ff           jmp      0x7f7860ac4893
0x7f7860ac5c7b:  41 8b f5                 movl     %r13d, %esi
0x7f7860ac5c7e:  41 8b d4                 movl     %r12d, %edx
0x7f7860ac5c81:  48 8b fd                 movq     %rbp, %rdi
0x7f7860ac5c84:  b9 12 00 00 00           movl     $0x12, %ecx
0x7f7860ac5c89:  4c 8d 05 3d ec ff ff     leaq     -0x13c3(%rip), %r8
0x7f7860ac5c90:  ff 15 62 03 00 00        callq    *0x362(%rip)
0x7f7860ac5c96:  e9 32 ec ff ff           jmp      0x7f7860ac48cd
0x7f7860ac5c9b:  41 8b f6                 movl     %r14d, %esi
0x7f7860ac5c9e:  41 8b d5                 movl     %r13d, %edx
0x7f7860ac5ca1:  48 8b fd                 movq     %rbp, %rdi
0x7f7860ac5ca4:  b9 12 00 00 00           movl     $0x12, %ecx
0x7f7860ac5ca9:  4c 8d 05 5f ec ff ff     leaq     -0x13a1(%rip), %r8
0x7f7860ac5cb0:  ff 15 42 03 00 00        callq    *0x342(%rip)
0x7f7860ac5cb6:  e9 54 ec ff ff           jmp      0x7f7860ac490f
0x7f7860ac5cbb:  41 8b f5                 movl     %r13d, %esi
0x7f7860ac5cbe:  41 8b d4                 movl     %r12d, %edx
0x7f7860ac5cc1:  48 8b fd                 movq     %rbp, %rdi
0x7f7860ac5cc4:  b9 12 00 00 00           movl     $0x12, %ecx
0x7f7860ac5cc9:  4c 8d 05 79 ec ff ff     leaq     -0x1387(%rip), %r8
0x7f7860ac5cd0:  ff 15 22 03 00 00        callq    *0x322(%rip)
0x7f7860ac5cd6:  e9 6e ec ff ff           jmp      0x7f7860ac4949
0x7f7860ac5cdb:  41 8b f6                 movl     %r14d, %esi
0x7f7860ac5cde:  41 8b d5                 movl     %r13d, %edx
0x7f7860ac5ce1:  48 8b fd                 movq     %rbp, %rdi
0x7f7860ac5ce4:  b9 12 00 00 00           movl     $0x12, %ecx
0x7f7860ac5ce9:  4c 8d 05 9b ec ff ff     leaq     -0x1365(%rip), %r8
0x7f7860ac5cf0:  ff 15 02 03 00 00        callq    *0x302(%rip)
0x7f7860ac5cf6:  e9 90 ec ff ff           jmp      0x7f7860ac498b
0x7f7860ac5cfb:  41 8b f5                 movl     %r13d, %esi
0x7f7860ac5cfe:  41 8b d4                 movl     %r12d, %edx
0x7f7860ac5d01:  48 8b fd                 movq     %rbp, %rdi
0x7f7860ac5d04:  b9 12 00 00 00           movl     $0x12, %ecx
0x7f7860ac5d09:  4c 8d 05 b5 ec ff ff     leaq     -0x134b(%rip), %r8
0x7f7860ac5d10:  ff 15 e2 02 00 00        callq    *0x2e2(%rip)
0x7f7860ac5d16:  e9 aa ec ff ff           jmp      0x7f7860ac49c5
0x7f7860ac5d1b:  41 8b f6                 movl     %r14d, %esi
0x7f7860ac5d1e:  41 8b d5                 movl     %r13d, %edx
0x7f7860ac5d21:  48 8b fd                 movq     %rbp, %rdi
0x7f7860ac5d24:  b9 12 00 00 00           movl     $0x12, %ecx
0x7f7860ac5d29:  4c 8d 05 d7 ec ff ff     leaq     -0x1329(%rip), %r8
0x7f7860ac5d30:  ff 15 c2 02 00 00        callq    *0x2c2(%rip)
0x7f7860ac5d36:  e9 cc ec ff ff           jmp      0x7f7860ac4a07
0x7f7860ac5d3b:  41 8b f5                 movl     %r13d, %esi
0x7f7860ac5d3e:  41 8b d4                 movl     %r12d, %edx
0x7f7860ac5d41:  48 8b fd                 movq     %rbp, %rdi
0x7f7860ac5d44:  b9 12 00 00 00           movl     $0x12, %ecx
0x7f7860ac5d49:  4c 8d 05 f1 ec ff ff     leaq     -0x130f(%rip), %r8
0x7f7860ac5d50:  ff 15 a2 02 00 00        callq    *0x2a2(%rip)
0x7f7860ac5d56:  e9 e6 ec ff ff           jmp      0x7f7860ac4a41
0x7f7860ac5d5b:  41 8b f6                 movl     %r14d, %esi
0x7f7860ac5d5e:  41 8b d5                 movl     %r13d, %edx
0x7f7860ac5d61:  48 8b fd                 movq     %rbp, %rdi
0x7f7860ac5d64:  b9 12 00 00 00           movl     $0x12, %ecx
0x7f7860ac5d69:  4c 8d 05 13 ed ff ff     leaq     -0x12ed(%rip), %r8
0x7f7860ac5d70:  ff 15 82 02 00 00        callq    *0x282(%rip)
0x7f7860ac5d76:  e9 08 ed ff ff           jmp      0x7f7860ac4a83
0x7f7860ac5d7b:  41 8b f5                 movl     %r13d, %esi
0x7f7860ac5d7e:  41 8b d4                 movl     %r12d, %edx
0x7f7860ac5d81:  48 8b fd                 movq     %rbp, %rdi
0x7f7860ac5d84:  b9 12 00 00 00           movl     $0x12, %ecx
0x7f7860ac5d89:  4c 8d 05 2d ed ff ff     leaq     -0x12d3(%rip), %r8
0x7f7860ac5d90:  ff 15 62 02 00 00        callq    *0x262(%rip)
0x7f7860ac5d96:  e9 22 ed ff ff           jmp      0x7f7860ac4abd
0x7f7860ac5d9b:  41 8b f6                 movl     %r14d, %esi
0x7f7860ac5d9e:  41 8b d5                 movl     %r13d, %edx
0x7f7860ac5da1:  48 8b fd                 movq     %rbp, %rdi
0x7f7860ac5da4:  b9 12 00 00 00           movl     $0x12, %ecx
0x7f7860ac5da9:  4c 8d 05 4f ed ff ff     leaq     -0x12b1(%rip), %r8
0x7f7860ac5db0:  ff 15 42 02 00 00        callq    *0x242(%rip)
0x7f7860ac5db6:  e9 44 ed ff ff           jmp      0x7f7860ac4aff
0x7f7860ac5dbb:  41 8b f5                 movl     %r13d, %esi
0x7f7860ac5dbe:  41 8b d4                 movl     %r12d, %edx
0x7f7860ac5dc1:  48 8b fd                 movq     %rbp, %rdi
0x7f7860ac5dc4:  b9 12 00 00 00           movl     $0x12, %ecx
0x7f7860ac5dc9:  4c 8d 05 69 ed ff ff     leaq     -0x1297(%rip), %r8
0x7f7860ac5dd0:  ff 15 22 02 00 00        callq    *0x222(%rip)
0x7f7860ac5dd6:  e9 5e ed ff ff           jmp      0x7f7860ac4b39
0x7f7860ac5ddb:  41 8b f6                 movl     %r14d, %esi
0x7f7860ac5dde:  41 8b d5                 movl     %r13d, %edx
0x7f7860ac5de1:  48 8b fd                 movq     %rbp, %rdi
0x7f7860ac5de4:  b9 12 00 00 00           movl     $0x12, %ecx
0x7f7860ac5de9:  4c 8d 05 8b ed ff ff     leaq     -0x1275(%rip), %r8
0x7f7860ac5df0:  ff 15 02 02 00 00        callq    *0x202(%rip)
0x7f7860ac5df6:  e9 80 ed ff ff           jmp      0x7f7860ac4b7b
0x7f7860ac5dfb:  41 8b f5                 movl     %r13d, %esi
0x7f7860ac5dfe:  41 8b d4                 movl     %r12d, %edx
0x7f7860ac5e01:  48 8b fd                 movq     %rbp, %rdi
0x7f7860ac5e04:  b9 12 00 00 00           movl     $0x12, %ecx
0x7f7860ac5e09:  4c 8d 05 a5 ed ff ff     leaq     -0x125b(%rip), %r8
0x7f7860ac5e10:  ff 15 e2 01 00 00        callq    *0x1e2(%rip)
0x7f7860ac5e16:  e9 9a ed ff ff           jmp      0x7f7860ac4bb5
0x7f7860ac5e1b:  41 8b f5                 movl     %r13d, %esi
0x7f7860ac5e1e:  8b d3                    movl     %ebx, %edx
0x7f7860ac5e20:  48 8b fd                 movq     %rbp, %rdi
0x7f7860ac5e23:  b9 22 00 00 00           movl     $0x22, %ecx
0x7f7860ac5e28:  4c 8d 05 c2 ed ff ff     leaq     -0x123e(%rip), %r8
0x7f7860ac5e2f:  ff 15 bb 01 00 00        callq    *0x1bb(%rip)
0x7f7860ac5e35:  e9 b7 ed ff ff           jmp      0x7f7860ac4bf1
0x7f7860ac5e3a:  41 8b f5                 movl     %r13d, %esi
0x7f7860ac5e3d:  8b d3                    movl     %ebx, %edx
0x7f7860ac5e3f:  48 8b fd                 movq     %rbp, %rdi
0x7f7860ac5e42:  b9 22 00 00 00           movl     $0x22, %ecx
0x7f7860ac5e47:  4c 8d 05 d8 ed ff ff     leaq     -0x1228(%rip), %r8
0x7f7860ac5e4e:  ff 15 9c 01 00 00        callq    *0x19c(%rip)
0x7f7860ac5e54:  e9 cd ed ff ff           jmp      0x7f7860ac4c26
0x7f7860ac5e59:  41 8b f5                 movl     %r13d, %esi
0x7f7860ac5e5c:  8b d3                    movl     %ebx, %edx
0x7f7860ac5e5e:  48 8b fd                 movq     %rbp, %rdi
0x7f7860ac5e61:  b9 22 00 00 00           movl     $0x22, %ecx
0x7f7860ac5e66:  4c 8d 05 ee ed ff ff     leaq     -0x1212(%rip), %r8
0x7f7860ac5e6d:  ff 15 7d 01 00 00        callq    *0x17d(%rip)
0x7f7860ac5e73:  e9 e3 ed ff ff           jmp      0x7f7860ac4c5b
0x7f7860ac5e78:  41 8b f5                 movl     %r13d, %esi
0x7f7860ac5e7b:  8b d3                    movl     %ebx, %edx
0x7f7860ac5e7d:  48 8b fd                 movq     %rbp, %rdi
0x7f7860ac5e80:  b9 22 00 00 00           movl     $0x22, %ecx
0x7f7860ac5e85:  4c 8d 05 04 ee ff ff     leaq     -0x11fc(%rip), %r8
0x7f7860ac5e8c:  ff 15 5e 01 00 00        callq    *0x15e(%rip)
0x7f7860ac5e92:  e9 f9 ed ff ff           jmp      0x7f7860ac4c90
0x7f7860ac5e97:  41 8b f5                 movl     %r13d, %esi
0x7f7860ac5e9a:  8b d3                    movl     %ebx, %edx
0x7f7860ac5e9c:  48 8b fd                 movq     %rbp, %rdi
0x7f7860ac5e9f:  b9 22 00 00 00           movl     $0x22, %ecx
0x7f7860ac5ea4:  4c 8d 05 1a ee ff ff     leaq     -0x11e6(%rip), %r8
0x7f7860ac5eab:  ff 15 3f 01 00 00        callq    *0x13f(%rip)
0x7f7860ac5eb1:  e9 0f ee ff ff           jmp      0x7f7860ac4cc5
0x7f7860ac5eb6:  41 8b f5                 movl     %r13d, %esi
0x7f7860ac5eb9:  8b d3                    movl     %ebx, %edx
0x7f7860ac5ebb:  48 8b fd                 movq     %rbp, %rdi
0x7f7860ac5ebe:  b9 22 00 00 00           movl     $0x22, %ecx
0x7f7860ac5ec3:  4c 8d 05 30 ee ff ff     leaq     -0x11d0(%rip), %r8
0x7f7860ac5eca:  ff 15 20 01 00 00        callq    *0x120(%rip)
0x7f7860ac5ed0:  e9 25 ee ff ff           jmp      0x7f7860ac4cfa
0x7f7860ac5ed5:  41 8b f5                 movl     %r13d, %esi
0x7f7860ac5ed8:  8b d3                    movl     %ebx, %edx
0x7f7860ac5eda:  48 8b fd                 movq     %rbp, %rdi
0x7f7860ac5edd:  b9 22 00 00 00           movl     $0x22, %ecx
0x7f7860ac5ee2:  4c 8d 05 46 ee ff ff     leaq     -0x11ba(%rip), %r8
0x7f7860ac5ee9:  ff 15 01 01 00 00        callq    *0x101(%rip)
0x7f7860ac5eef:  e9 3b ee ff ff           jmp      0x7f7860ac4d2f
0x7f7860ac5ef4:  41 8b f5                 movl     %r13d, %esi
0x7f7860ac5ef7:  8b d3                    movl     %ebx, %edx
0x7f7860ac5ef9:  48 8b fd                 movq     %rbp, %rdi
0x7f7860ac5efc:  b9 22 00 00 00           movl     $0x22, %ecx
0x7f7860ac5f01:  4c 8d 05 5c ee ff ff     leaq     -0x11a4(%rip), %r8
0x7f7860ac5f08:  ff 15 e2 00 00 00        callq    *0xe2(%rip)
0x7f7860ac5f0e:  e9 51 ee ff ff           jmp      0x7f7860ac4d64
0x7f7860ac5f13:  41 8b f5                 movl     %r13d, %esi
0x7f7860ac5f16:  8b d3                    movl     %ebx, %edx
0x7f7860ac5f18:  48 8b fd                 movq     %rbp, %rdi
0x7f7860ac5f1b:  b9 22 00 00 00           movl     $0x22, %ecx
0x7f7860ac5f20:  4c 8d 05 72 ee ff ff     leaq     -0x118e(%rip), %r8
0x7f7860ac5f27:  ff 15 c3 00 00 00        callq    *0xc3(%rip)
0x7f7860ac5f2d:  e9 67 ee ff ff           jmp      0x7f7860ac4d99
0x7f7860ac5f32:  41 8b f5                 movl     %r13d, %esi
0x7f7860ac5f35:  8b d3                    movl     %ebx, %edx
0x7f7860ac5f37:  48 8b fd                 movq     %rbp, %rdi
0x7f7860ac5f3a:  b9 22 00 00 00           movl     $0x22, %ecx
0x7f7860ac5f3f:  4c 8d 05 88 ee ff ff     leaq     -0x1178(%rip), %r8
0x7f7860ac5f46:  ff 15 a4 00 00 00        callq    *0xa4(%rip)
0x7f7860ac5f4c:  e9 7d ee ff ff           jmp      0x7f7860ac4dce
0x7f7860ac5f51:  41 8b f5                 movl     %r13d, %esi
0x7f7860ac5f54:  8b d3                    movl     %ebx, %edx
0x7f7860ac5f56:  48 8b fd                 movq     %rbp, %rdi
0x7f7860ac5f59:  b9 22 00 00 00           movl     $0x22, %ecx
0x7f7860ac5f5e:  4c 8d 05 9e ee ff ff     leaq     -0x1162(%rip), %r8
0x7f7860ac5f65:  ff 15 85 00 00 00        callq    *0x85(%rip)
0x7f7860ac5f6b:  e9 93 ee ff ff           jmp      0x7f7860ac4e03
0x7f7860ac5f70:  41 8b f5                 movl     %r13d, %esi
0x7f7860ac5f73:  8b d3                    movl     %ebx, %edx
0x7f7860ac5f75:  48 8b fd                 movq     %rbp, %rdi
0x7f7860ac5f78:  b9 12 00 00 00           movl     $0x12, %ecx
0x7f7860ac5f7d:  4c 8d 05 ba ee ff ff     leaq     -0x1146(%rip), %r8
0x7f7860ac5f84:  ff 15 6e 00 00 00        callq    *0x6e(%rip)
0x7f7860ac5f8a:  e9 af ee ff ff           jmp      0x7f7860ac4e3e
0x7f7860ac5f8f:  8b f3                    movl     %ebx, %esi
0x7f7860ac5f91:  41 8b d4                 movl     %r12d, %edx
0x7f7860ac5f94:  48 8b fd                 movq     %rbp, %rdi
0x7f7860ac5f97:  b9 12 00 00 00           movl     $0x12, %ecx
0x7f7860ac5f9c:  4c 8d 05 d1 ee ff ff     leaq     -0x112f(%rip), %r8
0x7f7860ac5fa3:  ff 15 4f 00 00 00        callq    *0x4f(%rip)
0x7f7860ac5fa9:  e9 c6 ee ff ff           jmp      0x7f7860ac4e74
0x7f7860ac5fae:  41 8b f5                 movl     %r13d, %esi
0x7f7860ac5fb1:  8b d3                    movl     %ebx, %edx
0x7f7860ac5fb3:  48 8b fd                 movq     %rbp, %rdi
0x7f7860ac5fb6:  b9 12 00 00 00           movl     $0x12, %ecx
0x7f7860ac5fbb:  4c 8d 05 f4 ee ff ff     leaq     -0x110c(%rip), %r8
0x7f7860ac5fc2:  ff 15 30 00 00 00        callq    *0x30(%rip)
0x7f7860ac5fc8:  e9 e9 ee ff ff           jmp      0x7f7860ac4eb6
0x7f7860ac5fcd:  8b f3                    movl     %ebx, %esi
0x7f7860ac5fcf:  41 8b d4                 movl     %r12d, %edx
0x7f7860ac5fd2:  48 8b fd                 movq     %rbp, %rdi
0x7f7860ac5fd5:  b9 12 00 00 00           movl     $0x12, %ecx
0x7f7860ac5fda:  4c 8d 05 0b ef ff ff     leaq     -0x10f5(%rip), %r8
0x7f7860ac5fe1:  ff 15 11 00 00 00        callq    *0x11(%rip)
0x7f7860ac5fe7:  e9 00 ef ff ff           jmp      0x7f7860ac4eec
0x7f7860ac5fec:  90                       nop      
0x7f7860ac5fed:  90                       nop      
0x7f7860ac5fee:  90                       nop      
0x7f7860ac5fef:  90                       nop      
  data: [size=16]
0x7f7860ac5ff0:  .quad  0x0000557106c21520
0x7f7860ac5ff8:  .quad  0x0000557106c21510

OUT: [size=72]
  -- guest addr 0x0000000000000ffc + tb prologue
0x7f7860ac6380:  8b 5d f0                 movl     -0x10(%rbp), %ebx
0x7f7860ac6383:  85 db                    testl    %ebx, %ebx
0x7f7860ac6385:  0f 8c 25 00 00 00        jl       0x7f7860ac63b0
0x7f7860ac638b:  c7 85 20 db ff ff 00 00  movl     $0, -0x24e0(%rbp)
0x7f7860ac6393:  00 00
0x7f7860ac6395:  c7 45 00 18 02 10 00     movl     $0x100218, (%rbp)
0x7f7860ac639c:  8b 5d 20                 movl     0x20(%rbp), %ebx
0x7f7860ac639f:  83 c3 05                 addl     $5, %ebx
0x7f7860ac63a2:  89 5d 20                 movl     %ebx, 0x20(%rbp)
0x7f7860ac63a5:  48 8b fd                 movq     %rbp, %rdi
0x7f7860ac63a8:  ff 15 12 00 00 00        callq    *0x12(%rip)
0x7f7860ac63ae:  ff e0                    jmpq     *%rax
0x7f7860ac63b0:  48 8d 05 0c ff ff ff     leaq     -0xf4(%rip), %rax
0x7f7860ac63b7:  e9 5c 9c 53 ff           jmp      0x7f7860000018
  -- tb slow paths + alignment
0x7f7860ac63bc:  90                       nop      
0x7f7860ac63bd:  90                       nop      
0x7f7860ac63be:  90                       nop      
0x7f7860ac63bf:  90                       nop      
  data: [size=8]
0x7f7860ac63c0:  .quad  0x0000557106c0fae0

OUT: [size=1024]
  -- guest addr 0x0000000000000001 + tb prologue
0x7f7860ac64c0:  8b 5d f0                 movl     -0x10(%rbp), %ebx
0x7f7860ac64c3:  85 db                    testl    %ebx, %ebx
0x7f7860ac64c5:  0f 8c a1 02 00 00        jl       0x7f7860ac676c
0x7f7860ac64cb:  c7 85 20 db ff ff 00 00  movl     $0, -0x24e0(%rbp)
0x7f7860ac64d3:  00 00
0x7f7860ac64d5:  8b 5d 00                 movl     (%rbp), %ebx
0x7f7860ac64d8:  41 bc e0 45 10 00        movl     $0x1045e0, %r12d
0x7f7860ac64de:  41 8b fc                 movl     %r12d, %edi
0x7f7860ac64e1:  c1 ef 07                 shrl     $7, %edi
0x7f7860ac64e4:  23 bd 10 ff ff ff        andl     -0xf0(%rbp), %edi
0x7f7860ac64ea:  48 03 bd 18 ff ff ff     addq     -0xe8(%rbp), %rdi
0x7f7860ac64f1:  41 8d 74 24 01           leal     1(%r12), %esi
0x7f7860ac64f6:  81 e6 00 f0 ff ff        andl     $0xfffff000, %esi
0x7f7860ac64fc:  3b 77 08                 cmpl     8(%rdi), %esi
0x7f7860ac64ff:  0f 85 73 02 00 00        jne      0x7f7860ac6778
0x7f7860ac6505:  48 8b 7f 18              movq     0x18(%rdi), %rdi
0x7f7860ac6509:  66 41 89 1c 3c           movw     %bx, (%r12, %rdi)
  -- guest addr 0x0000000000000007
0x7f7860ac650e:  44 8b e3                 movl     %ebx, %r12d
0x7f7860ac6511:  41 c1 ec 0f              shrl     $0xf, %r12d
0x7f7860ac6515:  c1 eb 10                 shrl     $0x10, %ebx
0x7f7860ac6518:  89 5d 00                 movl     %ebx, (%rbp)
0x7f7860ac651b:  44 89 65 2c              movl     %r12d, 0x2c(%rbp)
0x7f7860ac651f:  89 5d 28                 movl     %ebx, 0x28(%rbp)
  -- guest addr 0x000000000000000a
0x7f7860ac6522:  41 bc e6 45 10 00        movl     $0x1045e6, %r12d
0x7f7860ac6528:  41 8b fc                 movl     %r12d, %edi
0x7f7860ac652b:  c1 ef 07                 shrl     $7, %edi
0x7f7860ac652e:  23 bd 10 ff ff ff        andl     -0xf0(%rbp), %edi
0x7f7860ac6534:  48 03 bd 18 ff ff ff     addq     -0xe8(%rbp), %rdi
0x7f7860ac653b:  41 8d 74 24 01           leal     1(%r12), %esi
0x7f7860ac6540:  81 e6 00 f0 ff ff        andl     $0xfffff000, %esi
0x7f7860ac6546:  3b 77 08                 cmpl     8(%rdi), %esi
0x7f7860ac6549:  0f 85 48 02 00 00        jne      0x7f7860ac6797
0x7f7860ac654f:  48 8b 7f 18              movq     0x18(%rdi), %rdi
0x7f7860ac6553:  66 41 89 1c 3c           movw     %bx, (%r12, %rdi)
  -- guest addr 0x0000000000000010
0x7f7860ac6558:  c7 45 00 1f 02 10 00     movl     $0x10021f, (%rbp)
  -- guest addr 0x0000000000000015
0x7f7860ac655f:  bb 08 00 00 8e           movl     $0x8e000008, %ebx
0x7f7860ac6564:  41 bc d2 45 10 00        movl     $0x1045d2, %r12d
0x7f7860ac656a:  41 8b fc                 movl     %r12d, %edi
0x7f7860ac656d:  c1 ef 07                 shrl     $7, %edi
0x7f7860ac6570:  23 bd 10 ff ff ff        andl     -0xf0(%rbp), %edi
0x7f7860ac6576:  48 03 bd 18 ff ff ff     addq     -0xe8(%rbp), %rdi
0x7f7860ac657d:  41 8d 74 24 03           leal     3(%r12), %esi
0x7f7860ac6582:  81 e6 00 f0 ff ff        andl     $0xfffff000, %esi
0x7f7860ac6588:  3b 77 08                 cmpl     8(%rdi), %esi
0x7f7860ac658b:  0f 85 25 02 00 00        jne      0x7f7860ac67b6
0x7f7860ac6591:  48 8b 7f 18              movq     0x18(%rdi), %rdi
0x7f7860ac6595:  41 89 1c 3c              movl     %ebx, (%r12, %rdi)
  -- guest addr 0x000000000000001f
0x7f7860ac6599:  41 bc da 45 10 00        movl     $0x1045da, %r12d
0x7f7860ac659f:  41 8b fc                 movl     %r12d, %edi
0x7f7860ac65a2:  c1 ef 07                 shrl     $7, %edi
0x7f7860ac65a5:  23 bd 10 ff ff ff        andl     -0xf0(%rbp), %edi
0x7f7860ac65ab:  48 03 bd 18 ff ff ff     addq     -0xe8(%rbp), %rdi
0x7f7860ac65b2:  41 8d 74 24 03           leal     3(%r12), %esi
0x7f7860ac65b7:  81 e6 00 f0 ff ff        andl     $0xfffff000, %esi
0x7f7860ac65bd:  3b 77 08                 cmpl     8(%rdi), %esi
0x7f7860ac65c0:  0f 85 0f 02 00 00        jne      0x7f7860ac67d5
0x7f7860ac65c6:  48 8b 7f 18              movq     0x18(%rdi), %rdi
0x7f7860ac65ca:  41 89 1c 3c              movl     %ebx, (%r12, %rdi)
  -- guest addr 0x0000000000000029
0x7f7860ac65ce:  41 bc e2 45 10 00        movl     $0x1045e2, %r12d
0x7f7860ac65d4:  41 8b fc                 movl     %r12d, %edi
0x7f7860ac65d7:  c1 ef 07                 shrl     $7, %edi
0x7f7860ac65da:  23 bd 10 ff ff ff        andl     -0xf0(%rbp), %edi
0x7f7860ac65e0:  48 03 bd 18 ff ff ff     addq     -0xe8(%rbp), %rdi
0x7f7860ac65e7:  41 8d 74 24 03           leal     3(%r12), %esi
0x7f7860ac65ec:  81 e6 00 f0 ff ff        andl     $0xfffff000, %esi
0x7f7860ac65f2:  3b 77 08                 cmpl     8(%rdi), %esi
0x7f7860ac65f5:  0f 85 f9 01 00 00        jne      0x7f7860ac67f4
0x7f7860ac65fb:  48 8b 7f 18              movq     0x18(%rdi), %rdi
0x7f7860ac65ff:  41 89 1c 3c              movl     %ebx, (%r12, %rdi)
  -- guest addr 0x0000000000000033
0x7f7860ac6603:  41 bc ea 45 10 00        movl     $0x1045ea, %r12d
0x7f7860ac6609:  41 8b fc                 movl     %r12d, %edi
0x7f7860ac660c:  c1 ef 07                 shrl     $7, %edi
0x7f7860ac660f:  23 bd 10 ff ff ff        andl     -0xf0(%rbp), %edi
0x7f7860ac6615:  48 03 bd 18 ff ff ff     addq     -0xe8(%rbp), %rdi
0x7f7860ac661c:  41 8d 74 24 03           leal     3(%r12), %esi
0x7f7860ac6621:  81 e6 00 f0 ff ff        andl     $0xfffff000, %esi
0x7f7860ac6627:  3b 77 08                 cmpl     8(%rdi), %esi
0x7f7860ac662a:  0f 85 e3 01 00 00        jne      0x7f7860ac6813
0x7f7860ac6630:  48 8b 7f 18              movq     0x18(%rdi), %rdi
0x7f7860ac6634:  41 89 1c 3c              movl     %ebx, (%r12, %rdi)
  -- guest addr 0x000000000000003d
0x7f7860ac6638:  bb 1f 02 10 00           movl     $0x10021f, %ebx
0x7f7860ac663d:  41 bc e8 45 10 00        movl     $0x1045e8, %r12d
0x7f7860ac6643:  41 8b fc                 movl     %r12d, %edi
0x7f7860ac6646:  c1 ef 07                 shrl     $7, %edi
0x7f7860ac6649:  23 bd 10 ff ff ff        andl     -0xf0(%rbp), %edi
0x7f7860ac664f:  48 03 bd 18 ff ff ff     addq     -0xe8(%rbp), %rdi
0x7f7860ac6656:  41 8d 74 24 01           leal     1(%r12), %esi
0x7f7860ac665b:  81 e6 00 f0 ff ff        andl     $0xfffff000, %esi
0x7f7860ac6661:  3b 77 08                 cmpl     8(%rdi), %esi
0x7f7860ac6664:  0f 85 c8 01 00 00        jne      0x7f7860ac6832
0x7f7860ac666a:  48 8b 7f 18              movq     0x18(%rdi), %rdi
0x7f7860ac666e:  66 41 89 1c 3c           movw     %bx, (%r12, %rdi)
  -- guest addr 0x0000000000000043
0x7f7860ac6673:  c7 45 00 10 00 00 00     movl     $0x10, (%rbp)
0x7f7860ac667a:  c7 45 2c 20 00 00 00     movl     $0x20, 0x2c(%rbp)
0x7f7860ac6681:  c7 45 28 10 00 00 00     movl     $0x10, 0x28(%rbp)
  -- guest addr 0x0000000000000046
0x7f7860ac6688:  bb 10 00 00 00           movl     $0x10, %ebx
0x7f7860ac668d:  41 bc ee 45 10 00        movl     $0x1045ee, %r12d
0x7f7860ac6693:  41 8b fc                 movl     %r12d, %edi
0x7f7860ac6696:  c1 ef 07                 shrl     $7, %edi
0x7f7860ac6699:  23 bd 10 ff ff ff        andl     -0xf0(%rbp), %edi
0x7f7860ac669f:  48 03 bd 18 ff ff ff     addq     -0xe8(%rbp), %rdi
0x7f7860ac66a6:  41 8d 74 24 01           leal     1(%r12), %esi
0x7f7860ac66ab:  81 e6 00 f0 ff ff        andl     $0xfffff000, %esi
0x7f7860ac66b1:  3b 77 08                 cmpl     8(%rdi), %esi
0x7f7860ac66b4:  0f 85 97 01 00 00        jne      0x7f7860ac6851
0x7f7860ac66ba:  48 8b 7f 18              movq     0x18(%rdi), %rdi
0x7f7860ac66be:  66 41 89 1c 3c           movw     %bx, (%r12, %rdi)
  -- guest addr 0x000000000000004c
0x7f7860ac66c3:  c7 45 00 00 00 00 00     movl     $0, (%rbp)
  -- guest addr 0x0000000000000050
0x7f7860ac66ca:  45 33 e4                 xorl     %r12d, %r12d
0x7f7860ac66cd:  41 bd 60 40 10 00        movl     $0x104060, %r13d
0x7f7860ac66d3:  41 8b fd                 movl     %r13d, %edi
0x7f7860ac66d6:  c1 ef 07                 shrl     $7, %edi
0x7f7860ac66d9:  23 bd 10 ff ff ff        andl     -0xf0(%rbp), %edi
0x7f7860ac66df:  48 03 bd 18 ff ff ff     addq     -0xe8(%rbp), %rdi
0x7f7860ac66e6:  41 8d 75 03              leal     3(%r13), %esi
0x7f7860ac66ea:  81 e6 00 f0 ff ff        andl     $0xfffff000, %esi
0x7f7860ac66f0:  3b 77 08                 cmpl     8(%rdi), %esi
0x7f7860ac66f3:  0f 85 77 01 00 00        jne      0x7f7860ac6870
0x7f7860ac66f9:  48 8b 7f 18              movq     0x18(%rdi), %rdi
0x7f7860ac66fd:  45 89 64 3d 00           movl     %r12d, (%r13, %rdi)
  -- guest addr 0x000000000000005b
0x7f7860ac6702:  41 bd 64 40 10 00        movl     $0x104064, %r13d
0x7f7860ac6708:  41 8b fd                 movl     %r13d, %edi
0x7f7860ac670b:  c1 ef 07                 shrl     $7, %edi
0x7f7860ac670e:  23 bd 10 ff ff ff        andl     -0xf0(%rbp), %edi
0x7f7860ac6714:  48 03 bd 18 ff ff ff     addq     -0xe8(%rbp), %rdi
0x7f7860ac671b:  41 8d 75 03              leal     3(%r13), %esi
0x7f7860ac671f:  81 e6 00 f0 ff ff        andl     $0xfffff000, %esi
0x7f7860ac6725:  3b 77 08                 cmpl     8(%rdi), %esi
0x7f7860ac6728:  0f 85 62 01 00 00        jne      0x7f7860ac6890
0x7f7860ac672e:  48 8b 7f 18              movq     0x18(%rdi), %rdi
0x7f7860ac6732:  45 89 64 3d 00           movl     %r12d, (%r13, %rdi)
  -- guest addr 0x0000000000000066
0x7f7860ac6737:  c7 45 00 02 00 00 00     movl     $2, (%rbp)
  -- guest addr 0x0000000000000069
0x7f7860ac673e:  c7 45 2c 00 01 00 00     movl     $0x100, 0x2c(%rbp)
0x7f7860ac6745:  c7 45 28 02 ff ff ff     movl     $0xffffff02, 0x28(%rbp)
  -- guest addr 0x000000000000006e
0x7f7860ac674c:  89 5d 34                 movl     %ebx, 0x34(%rbp)
0x7f7860ac674f:  8b 5d 20                 movl     0x20(%rbp), %ebx
0x7f7860ac6752:  83 c3 4f                 addl     $0x4f, %ebx
0x7f7860ac6755:  89 5d 20                 movl     %ebx, 0x20(%rbp)
0x7f7860ac6758:  66 66 90                 nop      
0x7f7860ac675b:  e9 00 00 00 00           jmp      0x7f7860ac6760
0x7f7860ac6760:  48 8d 05 99 fc ff ff     leaq     -0x367(%rip), %rax
0x7f7860ac6767:  e9 ac 98 53 ff           jmp      0x7f7860000018
0x7f7860ac676c:  48 8d 05 90 fc ff ff     leaq     -0x370(%rip), %rax
0x7f7860ac6773:  e9 a0 98 53 ff           jmp      0x7f7860000018
  -- tb slow paths + alignment
0x7f7860ac6778:  41 8b f4                 movl     %r12d, %esi
0x7f7860ac677b:  8b d3                    movl     %ebx, %edx
0x7f7860ac677d:  48 8b fd                 movq     %rbp, %rdi
0x7f7860ac6780:  b9 12 00 00 00           movl     $0x12, %ecx
0x7f7860ac6785:  4c 8d 05 82 fd ff ff     leaq     -0x27e(%rip), %r8
0x7f7860ac678c:  ff 15 26 01 00 00        callq    *0x126(%rip)
0x7f7860ac6792:  e9 77 fd ff ff           jmp      0x7f7860ac650e
0x7f7860ac6797:  41 8b f4                 movl     %r12d, %esi
0x7f7860ac679a:  8b d3                    movl     %ebx, %edx
0x7f7860ac679c:  48 8b fd                 movq     %rbp, %rdi
0x7f7860ac679f:  b9 12 00 00 00           movl     $0x12, %ecx
0x7f7860ac67a4:  4c 8d 05 ad fd ff ff     leaq     -0x253(%rip), %r8
0x7f7860ac67ab:  ff 15 07 01 00 00        callq    *0x107(%rip)
0x7f7860ac67b1:  e9 a2 fd ff ff           jmp      0x7f7860ac6558
0x7f7860ac67b6:  41 8b f4                 movl     %r12d, %esi
0x7f7860ac67b9:  8b d3                    movl     %ebx, %edx
0x7f7860ac67bb:  48 8b fd                 movq     %rbp, %rdi
0x7f7860ac67be:  b9 22 00 00 00           movl     $0x22, %ecx
0x7f7860ac67c3:  4c 8d 05 cf fd ff ff     leaq     -0x231(%rip), %r8
0x7f7860ac67ca:  ff 15 e0 00 00 00        callq    *0xe0(%rip)
0x7f7860ac67d0:  e9 c4 fd ff ff           jmp      0x7f7860ac6599
0x7f7860ac67d5:  41 8b f4                 movl     %r12d, %esi
0x7f7860ac67d8:  8b d3                    movl     %ebx, %edx
0x7f7860ac67da:  48 8b fd                 movq     %rbp, %rdi
0x7f7860ac67dd:  b9 22 00 00 00           movl     $0x22, %ecx
0x7f7860ac67e2:  4c 8d 05 e5 fd ff ff     leaq     -0x21b(%rip), %r8
0x7f7860ac67e9:  ff 15 c1 00 00 00        callq    *0xc1(%rip)
0x7f7860ac67ef:  e9 da fd ff ff           jmp      0x7f7860ac65ce
0x7f7860ac67f4:  41 8b f4                 movl     %r12d, %esi
0x7f7860ac67f7:  8b d3                    movl     %ebx, %edx
0x7f7860ac67f9:  48 8b fd                 movq     %rbp, %rdi
0x7f7860ac67fc:  b9 22 00 00 00           movl     $0x22, %ecx
0x7f7860ac6801:  4c 8d 05 fb fd ff ff     leaq     -0x205(%rip), %r8
0x7f7860ac6808:  ff 15 a2 00 00 00        callq    *0xa2(%rip)
0x7f7860ac680e:  e9 f0 fd ff ff           jmp      0x7f7860ac6603
0x7f7860ac6813:  41 8b f4                 movl     %r12d, %esi
0x7f7860ac6816:  8b d3                    movl     %ebx, %edx
0x7f7860ac6818:  48 8b fd                 movq     %rbp, %rdi
0x7f7860ac681b:  b9 22 00 00 00           movl     $0x22, %ecx
0x7f7860ac6820:  4c 8d 05 11 fe ff ff     leaq     -0x1ef(%rip), %r8
0x7f7860ac6827:  ff 15 83 00 00 00        callq    *0x83(%rip)
0x7f7860ac682d:  e9 06 fe ff ff           jmp      0x7f7860ac6638
0x7f7860ac6832:  41 8b f4                 movl     %r12d, %esi
0x7f7860ac6835:  8b d3                    movl     %ebx, %edx
0x7f7860ac6837:  48 8b fd                 movq     %rbp, %rdi
0x7f7860ac683a:  b9 12 00 00 00           movl     $0x12, %ecx
0x7f7860ac683f:  4c 8d 05 2d fe ff ff     leaq     -0x1d3(%rip), %r8
0x7f7860ac6846:  ff 15 6c 00 00 00        callq    *0x6c(%rip)
0x7f7860ac684c:  e9 22 fe ff ff           jmp      0x7f7860ac6673
0x7f7860ac6851:  41 8b f4                 movl     %r12d, %esi
0x7f7860ac6854:  8b d3                    movl     %ebx, %edx
0x7f7860ac6856:  48 8b fd                 movq     %rbp, %rdi
0x7f7860ac6859:  b9 12 00 00 00           movl     $0x12, %ecx
0x7f7860ac685e:  4c 8d 05 5e fe ff ff     leaq     -0x1a2(%rip), %r8
0x7f7860ac6865:  ff 15 4d 00 00 00        callq    *0x4d(%rip)
0x7f7860ac686b:  e9 53 fe ff ff           jmp      0x7f7860ac66c3
0x7f7860ac6870:  41 8b f5                 movl     %r13d, %esi
0x7f7860ac6873:  41 8b d4                 movl     %r12d, %edx
0x7f7860ac6876:  48 8b fd                 movq     %rbp, %rdi
0x7f7860ac6879:  b9 22 00 00 00           movl     $0x22, %ecx
0x7f7860ac687e:  4c 8d 05 7d fe ff ff     leaq     -0x183(%rip), %r8
0x7f7860ac6885:  ff 15 25 00 00 00        callq    *0x25(%rip)
0x7f7860ac688b:  e9 72 fe ff ff           jmp      0x7f7860ac6702
0x7f7860ac6890:  41 8b f5                 movl     %r13d, %esi
0x7f7860ac6893:  41 8b d4                 movl     %r12d, %edx
0x7f7860ac6896:  48 8b fd                 movq     %rbp, %rdi
0x7f7860ac6899:  b9 22 00 00 00           movl     $0x22, %ecx
0x7f7860ac689e:  4c 8d 05 92 fe ff ff     leaq     -0x16e(%rip), %r8
0x7f7860ac68a5:  ff 15 05 00 00 00        callq    *5(%rip)
0x7f7860ac68ab:  e9 87 fe ff ff           jmp      0x7f7860ac6737
  data: [size=16]
0x7f7860ac68b0:  .quad  0x0000557106c21520
0x7f7860ac68b8:  .quad  0x0000557106c21510

OUT: [size=320]
  -- guest addr 0x0000000000000050 + tb prologue
0x7f7860ac69c0:  8b 5d f0                 movl     -0x10(%rbp), %ebx
0x7f7860ac69c3:  85 db                    testl    %ebx, %ebx
0x7f7860ac69c5:  0f 8c e1 00 00 00        jl       0x7f7860ac6aac
0x7f7860ac69cb:  c7 85 20 db ff ff 00 00  movl     $0, -0x24e0(%rbp)
0x7f7860ac69d3:  00 00
0x7f7860ac69d5:  8b 5d 00                 movl     (%rbp), %ebx
0x7f7860ac69d8:  44 8d 24 9d 00 00 00 00  leal     (, %rbx, 4), %r12d
0x7f7860ac69e0:  41 81 c4 60 40 10 00     addl     $0x104060, %r12d
0x7f7860ac69e7:  45 33 ed                 xorl     %r13d, %r13d
0x7f7860ac69ea:  41 8b fc                 movl     %r12d, %edi
0x7f7860ac69ed:  c1 ef 07                 shrl     $7, %edi
0x7f7860ac69f0:  23 bd 10 ff ff ff        andl     -0xf0(%rbp), %edi
0x7f7860ac69f6:  48 03 bd 18 ff ff ff     addq     -0xe8(%rbp), %rdi
0x7f7860ac69fd:  41 8d 74 24 03           leal     3(%r12), %esi
0x7f7860ac6a02:  81 e6 00 f0 ff ff        andl     $0xfffff000, %esi
0x7f7860ac6a08:  3b 77 08                 cmpl     8(%rdi), %esi
0x7f7860ac6a0b:  0f 85 a7 00 00 00        jne      0x7f7860ac6ab8
0x7f7860ac6a11:  48 8b 7f 18              movq     0x18(%rdi), %rdi
0x7f7860ac6a15:  45 89 2c 3c              movl     %r13d, (%r12, %rdi)
  -- guest addr 0x000000000000005b
0x7f7860ac6a19:  44 8d 24 9d 00 00 00 00  leal     (, %rbx, 4), %r12d
0x7f7860ac6a21:  41 81 c4 64 40 10 00     addl     $0x104064, %r12d
0x7f7860ac6a28:  41 8b fc                 movl     %r12d, %edi
0x7f7860ac6a2b:  c1 ef 07                 shrl     $7, %edi
0x7f7860ac6a2e:  23 bd 10 ff ff ff        andl     -0xf0(%rbp), %edi
0x7f7860ac6a34:  48 03 bd 18 ff ff ff     addq     -0xe8(%rbp), %rdi
0x7f7860ac6a3b:  41 8d 74 24 03           leal     3(%r12), %esi
0x7f7860ac6a40:  81 e6 00 f0 ff ff        andl     $0xfffff000, %esi
0x7f7860ac6a46:  3b 77 08                 cmpl     8(%rdi), %esi
0x7f7860ac6a49:  0f 85 89 00 00 00        jne      0x7f7860ac6ad8
0x7f7860ac6a4f:  48 8b 7f 18              movq     0x18(%rdi), %rdi
0x7f7860ac6a53:  45 89 2c 3c              movl     %r13d, (%r12, %rdi)
  -- guest addr 0x0000000000000066
0x7f7860ac6a57:  83 c3 02                 addl     $2, %ebx
0x7f7860ac6a5a:  89 5d 00                 movl     %ebx, (%rbp)
  -- guest addr 0x0000000000000069
0x7f7860ac6a5d:  c7 45 2c 00 01 00 00     movl     $0x100, 0x2c(%rbp)
0x7f7860ac6a64:  81 eb 00 01 00 00        subl     $0x100, %ebx
0x7f7860ac6a6a:  89 5d 28                 movl     %ebx, 0x28(%rbp)
  -- guest addr 0x000000000000006e
0x7f7860ac6a6d:  c7 45 34 10 00 00 00     movl     $0x10, 0x34(%rbp)
0x7f7860ac6a74:  41 3b dd                 cmpl     %r13d, %ebx
0x7f7860ac6a77:  0f 85 1b 00 00 00        jne      0x7f7860ac6a98
0x7f7860ac6a7d:  8b 5d 20                 movl     0x20(%rbp), %ebx
0x7f7860ac6a80:  83 c3 20                 addl     $0x20, %ebx
0x7f7860ac6a83:  89 5d 20                 movl     %ebx, 0x20(%rbp)
0x7f7860ac6a86:  90                       nop      
0x7f7860ac6a87:  e9 00 00 00 00           jmp      0x7f7860ac6a8c
0x7f7860ac6a8c:  48 8d 05 6e fe ff ff     leaq     -0x192(%rip), %rax
0x7f7860ac6a93:  e9 80 95 53 ff           jmp      0x7f7860000018
0x7f7860ac6a98:  66 66 90                 nop      
0x7f7860ac6a9b:  e9 00 00 00 00           jmp      0x7f7860ac6aa0
0x7f7860ac6aa0:  48 8d 05 59 fe ff ff     leaq     -0x1a7(%rip), %rax
0x7f7860ac6aa7:  e9 6c 95 53 ff           jmp      0x7f7860000018
0x7f7860ac6aac:  48 8d 05 50 fe ff ff     leaq     -0x1b0(%rip), %rax
0x7f7860ac6ab3:  e9 60 95 53 ff           jmp      0x7f7860000018
  -- tb slow paths + alignment
0x7f7860ac6ab8:  41 8b f4                 movl     %r12d, %esi
0x7f7860ac6abb:  41 8b d5                 movl     %r13d, %edx
0x7f7860ac6abe:  48 8b fd                 movq     %rbp, %rdi
0x7f7860ac6ac1:  b9 22 00 00 00           movl     $0x22, %ecx
0x7f7860ac6ac6:  4c 8d 05 4c ff ff ff     leaq     -0xb4(%rip), %r8
0x7f7860ac6acd:  ff 15 25 00 00 00        callq    *0x25(%rip)
0x7f7860ac6ad3:  e9 41 ff ff ff           jmp      0x7f7860ac6a19
0x7f7860ac6ad8:  41 8b f4                 movl     %r12d, %esi
0x7f7860ac6adb:  41 8b d5                 movl     %r13d, %edx
0x7f7860ac6ade:  48 8b fd                 movq     %rbp, %rdi
0x7f7860ac6ae1:  b9 22 00 00 00           movl     $0x22, %ecx
0x7f7860ac6ae6:  4c 8d 05 6a ff ff ff     leaq     -0x96(%rip), %r8
0x7f7860ac6aed:  ff 15 05 00 00 00        callq    *5(%rip)
0x7f7860ac6af3:  e9 5f ff ff ff           jmp      0x7f7860ac6a57
  data: [size=8]
0x7f7860ac6af8:  .quad  0x0000557106c21520

OUT: [size=280]
  -- guest addr 0x0000000000000070 + tb prologue
0x7f7860ac6c00:  8b 5d f0                 movl     -0x10(%rbp), %ebx
0x7f7860ac6c03:  85 db                    testl    %ebx, %ebx
0x7f7860ac6c05:  0f 8c ad 00 00 00        jl       0x7f7860ac6cb8
0x7f7860ac6c0b:  c7 85 20 db ff ff 00 00  movl     $0, -0x24e0(%rbp)
0x7f7860ac6c13:  00 00
0x7f7860ac6c15:  8b 5d 10                 movl     0x10(%rbp), %ebx
0x7f7860ac6c18:  83 eb 0c                 subl     $0xc, %ebx
0x7f7860ac6c1b:  89 5d 10                 movl     %ebx, 0x10(%rbp)
0x7f7860ac6c1e:  c7 45 2c 0c 00 00 00     movl     $0xc, 0x2c(%rbp)
0x7f7860ac6c25:  89 5d 28                 movl     %ebx, 0x28(%rbp)
  -- guest addr 0x0000000000000073
0x7f7860ac6c28:  83 eb 04                 subl     $4, %ebx
0x7f7860ac6c2b:  41 bc 60 44 10 00        movl     $0x104460, %r12d
0x7f7860ac6c31:  8b fb                    movl     %ebx, %edi
0x7f7860ac6c33:  c1 ef 07                 shrl     $7, %edi
0x7f7860ac6c36:  23 bd 10 ff ff ff        andl     -0xf0(%rbp), %edi
0x7f7860ac6c3c:  48 03 bd 18 ff ff ff     addq     -0xe8(%rbp), %rdi
0x7f7860ac6c43:  8d 73 03                 leal     3(%rbx), %esi
0x7f7860ac6c46:  81 e6 00 f0 ff ff        andl     $0xfffff000, %esi
0x7f7860ac6c4c:  3b 77 08                 cmpl     8(%rdi), %esi
0x7f7860ac6c4f:  0f 85 6f 00 00 00        jne      0x7f7860ac6cc4
0x7f7860ac6c55:  48 8b 7f 18              movq     0x18(%rdi), %rdi
0x7f7860ac6c59:  44 89 24 3b              movl     %r12d, (%rbx, %rdi)
0x7f7860ac6c5d:  89 5d 10                 movl     %ebx, 0x10(%rbp)
  -- guest addr 0x0000000000000078
0x7f7860ac6c60:  44 8b 65 20              movl     0x20(%rbp), %r12d
0x7f7860ac6c64:  45 8d 6c 24 0d           leal     0xd(%r12), %r13d
0x7f7860ac6c69:  83 eb 04                 subl     $4, %ebx
0x7f7860ac6c6c:  8b fb                    movl     %ebx, %edi
0x7f7860ac6c6e:  c1 ef 07                 shrl     $7, %edi
0x7f7860ac6c71:  23 bd 10 ff ff ff        andl     -0xf0(%rbp), %edi
0x7f7860ac6c77:  48 03 bd 18 ff ff ff     addq     -0xe8(%rbp), %rdi
0x7f7860ac6c7e:  8d 73 03                 leal     3(%rbx), %esi
0x7f7860ac6c81:  81 e6 00 f0 ff ff        andl     $0xfffff000, %esi
0x7f7860ac6c87:  3b 77 08                 cmpl     8(%rdi), %esi
0x7f7860ac6c8a:  0f 85 53 00 00 00        jne      0x7f7860ac6ce3
0x7f7860ac6c90:  48 8b 7f 18              movq     0x18(%rdi), %rdi
0x7f7860ac6c94:  44 89 2c 3b              movl     %r13d, (%rbx, %rdi)
0x7f7860ac6c98:  89 5d 10                 movl     %ebx, 0x10(%rbp)
0x7f7860ac6c9b:  c7 45 34 10 00 00 00     movl     $0x10, 0x34(%rbp)
0x7f7860ac6ca2:  41 8d 9c 24 00 f0 ff ff  leal     -0x1000(%r12), %ebx
0x7f7860ac6caa:  89 5d 20                 movl     %ebx, 0x20(%rbp)
0x7f7860ac6cad:  48 8b fd                 movq     %rbp, %rdi
0x7f7860ac6cb0:  ff 15 52 00 00 00        callq    *0x52(%rip)
0x7f7860ac6cb6:  ff e0                    jmpq     *%rax
0x7f7860ac6cb8:  48 8d 05 84 fe ff ff     leaq     -0x17c(%rip), %rax
0x7f7860ac6cbf:  e9 54 93 53 ff           jmp      0x7f7860000018
  -- tb slow paths + alignment
0x7f7860ac6cc4:  8b f3                    movl     %ebx, %esi
0x7f7860ac6cc6:  41 8b d4                 movl     %r12d, %edx
0x7f7860ac6cc9:  48 8b fd                 movq     %rbp, %rdi
0x7f7860ac6ccc:  b9 22 00 00 00           movl     $0x22, %ecx
0x7f7860ac6cd1:  4c 8d 05 85 ff ff ff     leaq     -0x7b(%rip), %r8
0x7f7860ac6cd8:  ff 15 32 00 00 00        callq    *0x32(%rip)
0x7f7860ac6cde:  e9 7a ff ff ff           jmp      0x7f7860ac6c5d
0x7f7860ac6ce3:  8b f3                    movl     %ebx, %esi
0x7f7860ac6ce5:  41 8b d5                 movl     %r13d, %edx
0x7f7860ac6ce8:  48 8b fd                 movq     %rbp, %rdi
0x7f7860ac6ceb:  b9 22 00 00 00           movl     $0x22, %ecx
0x7f7860ac6cf0:  4c 8d 05 a1 ff ff ff     leaq     -0x5f(%rip), %r8
0x7f7860ac6cf7:  ff 15 13 00 00 00        callq    *0x13(%rip)
0x7f7860ac6cfd:  e9 96 ff ff ff           jmp      0x7f7860ac6c98
0x7f7860ac6d02:  90                       nop      
0x7f7860ac6d03:  90                       nop      
0x7f7860ac6d04:  90                       nop      
0x7f7860ac6d05:  90                       nop      
0x7f7860ac6d06:  90                       nop      
0x7f7860ac6d07:  90                       nop      
  data: [size=16]
0x7f7860ac6d08:  .quad  0x0000557106c0fae0
0x7f7860ac6d10:  .quad  0x0000557106c21520

OUT: [size=416]
  -- guest addr 0x0000000000000070 + tb prologue
0x7f7860ac6e00:  8b 5d f0                 movl     -0x10(%rbp), %ebx
0x7f7860ac6e03:  85 db                    testl    %ebx, %ebx
0x7f7860ac6e05:  0f 8c f2 00 00 00        jl       0x7f7860ac6efd
0x7f7860ac6e0b:  c7 85 20 db ff ff 00 00  movl     $0, -0x24e0(%rbp)
0x7f7860ac6e13:  00 00
0x7f7860ac6e15:  8b 5d 10                 movl     0x10(%rbp), %ebx
0x7f7860ac6e18:  44 8d 63 04              leal     4(%rbx), %r12d
0x7f7860ac6e1c:  41 8b fc                 movl     %r12d, %edi
0x7f7860ac6e1f:  c1 ef 07                 shrl     $7, %edi
0x7f7860ac6e22:  23 bd 10 ff ff ff        andl     -0xf0(%rbp), %edi
0x7f7860ac6e28:  48 03 bd 18 ff ff ff     addq     -0xe8(%rbp), %rdi
0x7f7860ac6e2f:  41 8d 74 24 03           leal     3(%r12), %esi
0x7f7860ac6e34:  81 e6 00 f0 ff ff        andl     $0xfffff000, %esi
0x7f7860ac6e3a:  3b 37                    cmpl     (%rdi), %esi
0x7f7860ac6e3c:  0f 85 c7 00 00 00        jne      0x7f7860ac6f09
0x7f7860ac6e42:  48 8b 7f 18              movq     0x18(%rdi), %rdi
0x7f7860ac6e46:  45 8b 24 3c              movl     (%r12, %rdi), %r12d
0x7f7860ac6e4a:  44 89 65 00              movl     %r12d, (%rbp)
  -- guest addr 0x0000000000000074
0x7f7860ac6e4e:  41 8b fc                 movl     %r12d, %edi
0x7f7860ac6e51:  c1 ef 07                 shrl     $7, %edi
0x7f7860ac6e54:  23 bd 10 ff ff ff        andl     -0xf0(%rbp), %edi
0x7f7860ac6e5a:  48 03 bd 18 ff ff ff     addq     -0xe8(%rbp), %rdi
0x7f7860ac6e61:  41 8d 74 24 01           leal     1(%r12), %esi
0x7f7860ac6e66:  81 e6 00 f0 ff ff        andl     $0xfffff000, %esi
0x7f7860ac6e6c:  3b 37                    cmpl     (%rdi), %esi
0x7f7860ac6e6e:  0f 85 b5 00 00 00        jne      0x7f7860ac6f29
0x7f7860ac6e74:  48 8b 7f 18              movq     0x18(%rdi), %rdi
0x7f7860ac6e78:  45 0f b7 2c 3c           movzwl   (%r12, %rdi), %r13d
0x7f7860ac6e7d:  41 83 c4 02              addl     $2, %r12d
0x7f7860ac6e81:  41 8b fc                 movl     %r12d, %edi
0x7f7860ac6e84:  c1 ef 07                 shrl     $7, %edi
0x7f7860ac6e87:  23 bd 10 ff ff ff        andl     -0xf0(%rbp), %edi
0x7f7860ac6e8d:  48 03 bd 18 ff ff ff     addq     -0xe8(%rbp), %rdi
0x7f7860ac6e94:  41 8d 74 24 03           leal     3(%r12), %esi
0x7f7860ac6e99:  81 e6 00 f0 ff ff        andl     $0xfffff000, %esi
0x7f7860ac6e9f:  3b 37                    cmpl     (%rdi), %esi
0x7f7860ac6ea1:  0f 85 a2 00 00 00        jne      0x7f7860ac6f49
0x7f7860ac6ea7:  48 8b 7f 18              movq     0x18(%rdi), %rdi
0x7f7860ac6eab:  45 8b 24 3c              movl     (%r12, %rdi), %r12d
0x7f7860ac6eaf:  44 89 a5 d8 00 00 00     movl     %r12d, 0xd8(%rbp)
0x7f7860ac6eb6:  44 89 ad dc 00 00 00     movl     %r13d, 0xdc(%rbp)
  -- guest addr 0x0000000000000077
0x7f7860ac6ebd:  8b fb                    movl     %ebx, %edi
0x7f7860ac6ebf:  c1 ef 07                 shrl     $7, %edi
0x7f7860ac6ec2:  23 bd 10 ff ff ff        andl     -0xf0(%rbp), %edi
0x7f7860ac6ec8:  48 03 bd 18 ff ff ff     addq     -0xe8(%rbp), %rdi
0x7f7860ac6ecf:  8d 73 03                 leal     3(%rbx), %esi
0x7f7860ac6ed2:  81 e6 00 f0 ff ff        andl     $0xfffff000, %esi
0x7f7860ac6ed8:  3b 37                    cmpl     (%rdi), %esi
0x7f7860ac6eda:  0f 85 89 00 00 00        jne      0x7f7860ac6f69
0x7f7860ac6ee0:  48 8b 7f 18              movq     0x18(%rdi), %rdi
0x7f7860ac6ee4:  44 8b 24 3b              movl     (%rbx, %rdi), %r12d
0x7f7860ac6ee8:  83 c3 04                 addl     $4, %ebx
0x7f7860ac6eeb:  89 5d 10                 movl     %ebx, 0x10(%rbp)
0x7f7860ac6eee:  44 89 65 20              movl     %r12d, 0x20(%rbp)
0x7f7860ac6ef2:  48 8b fd                 movq     %rbp, %rdi
0x7f7860ac6ef5:  ff 15 8d 00 00 00        callq    *0x8d(%rip)
0x7f7860ac6efb:  ff e0                    jmpq     *%rax
0x7f7860ac6efd:  48 8d 05 3f fe ff ff     leaq     -0x1c1(%rip), %rax
0x7f7860ac6f04:  e9 0f 91 53 ff           jmp      0x7f7860000018
  -- tb slow paths + alignment
0x7f7860ac6f09:  41 8b f4                 movl     %r12d, %esi
0x7f7860ac6f0c:  48 8b fd                 movq     %rbp, %rdi
0x7f7860ac6f0f:  ba 22 00 00 00           movl     $0x22, %edx
0x7f7860ac6f14:  48 8d 0d 2f ff ff ff     leaq     -0xd1(%rip), %rcx
0x7f7860ac6f1b:  ff 15 6f 00 00 00        callq    *0x6f(%rip)
0x7f7860ac6f21:  44 8b e0                 movl     %eax, %r12d
0x7f7860ac6f24:  e9 21 ff ff ff           jmp      0x7f7860ac6e4a
0x7f7860ac6f29:  41 8b f4                 movl     %r12d, %esi
0x7f7860ac6f2c:  48 8b fd                 movq     %rbp, %rdi
0x7f7860ac6f2f:  ba 12 00 00 00           movl     $0x12, %edx
0x7f7860ac6f34:  48 8d 0d 42 ff ff ff     leaq     -0xbe(%rip), %rcx
0x7f7860ac6f3b:  ff 15 57 00 00 00        callq    *0x57(%rip)
0x7f7860ac6f41:  44 8b e8                 movl     %eax, %r13d
0x7f7860ac6f44:  e9 34 ff ff ff           jmp      0x7f7860ac6e7d
0x7f7860ac6f49:  41 8b f4                 movl     %r12d, %esi
0x7f7860ac6f4c:  48 8b fd                 movq     %rbp, %rdi
0x7f7860ac6f4f:  ba 22 00 00 00           movl     $0x22, %edx
0x7f7860ac6f54:  48 8d 0d 54 ff ff ff     leaq     -0xac(%rip), %rcx
0x7f7860ac6f5b:  ff 15 2f 00 00 00        callq    *0x2f(%rip)
0x7f7860ac6f61:  44 8b e0                 movl     %eax, %r12d
0x7f7860ac6f64:  e9 46 ff ff ff           jmp      0x7f7860ac6eaf
0x7f7860ac6f69:  8b f3                    movl     %ebx, %esi
0x7f7860ac6f6b:  48 8b fd                 movq     %rbp, %rdi
0x7f7860ac6f6e:  ba 22 00 00 00           movl     $0x22, %edx
0x7f7860ac6f73:  48 8d 0d 6e ff ff ff     leaq     -0x92(%rip), %rcx
0x7f7860ac6f7a:  ff 15 10 00 00 00        callq    *0x10(%rip)
0x7f7860ac6f80:  44 8b e0                 movl     %eax, %r12d
0x7f7860ac6f83:  e9 60 ff ff ff           jmp      0x7f7860ac6ee8
  data: [size=24]
0x7f7860ac6f88:  .quad  0x0000557106c0fae0
0x7f7860ac6f90:  .quad  0x0000557106c21270
0x7f7860ac6f98:  .quad  0x0000557106c21250

OUT: [size=264]
  -- guest addr 0x000000000000007d + tb prologue
0x7f7860ac7080:  8b 5d f0                 movl     -0x10(%rbp), %ebx
0x7f7860ac7083:  85 db                    testl    %ebx, %ebx
0x7f7860ac7085:  0f 8c 9c 00 00 00        jl       0x7f7860ac7127
0x7f7860ac708b:  c7 85 20 db ff ff 00 00  movl     $0, -0x24e0(%rbp)
0x7f7860ac7093:  00 00
0x7f7860ac7095:  8b 5d 10                 movl     0x10(%rbp), %ebx
0x7f7860ac7098:  83 c3 10                 addl     $0x10, %ebx
0x7f7860ac709b:  89 5d 10                 movl     %ebx, 0x10(%rbp)
0x7f7860ac709e:  c7 45 2c 10 00 00 00     movl     $0x10, 0x2c(%rbp)
0x7f7860ac70a5:  89 5d 28                 movl     %ebx, 0x28(%rbp)
  -- guest addr 0x0000000000000080
0x7f7860ac70a8:  8b 5d 14                 movl     0x14(%rbp), %ebx
0x7f7860ac70ab:  8b fb                    movl     %ebx, %edi
0x7f7860ac70ad:  c1 ef 07                 shrl     $7, %edi
0x7f7860ac70b0:  23 bd 10 ff ff ff        andl     -0xf0(%rbp), %edi
0x7f7860ac70b6:  48 03 bd 18 ff ff ff     addq     -0xe8(%rbp), %rdi
0x7f7860ac70bd:  8d 73 03                 leal     3(%rbx), %esi
0x7f7860ac70c0:  81 e6 00 f0 ff ff        andl     $0xfffff000, %esi
0x7f7860ac70c6:  3b 37                    cmpl     (%rdi), %esi
0x7f7860ac70c8:  0f 85 65 00 00 00        jne      0x7f7860ac7133
0x7f7860ac70ce:  48 8b 7f 18              movq     0x18(%rdi), %rdi
0x7f7860ac70d2:  44 8b 24 3b              movl     (%rbx, %rdi), %r12d
0x7f7860ac70d6:  83 c3 04                 addl     $4, %ebx
0x7f7860ac70d9:  44 89 65 14              movl     %r12d, 0x14(%rbp)
0x7f7860ac70dd:  89 5d 10                 movl     %ebx, 0x10(%rbp)
  -- guest addr 0x0000000000000081
0x7f7860ac70e0:  8b fb                    movl     %ebx, %edi
0x7f7860ac70e2:  c1 ef 07                 shrl     $7, %edi
0x7f7860ac70e5:  23 bd 10 ff ff ff        andl     -0xf0(%rbp), %edi
0x7f7860ac70eb:  48 03 bd 18 ff ff ff     addq     -0xe8(%rbp), %rdi
0x7f7860ac70f2:  8d 73 03                 leal     3(%rbx), %esi
0x7f7860ac70f5:  81 e6 00 f0 ff ff        andl     $0xfffff000, %esi
0x7f7860ac70fb:  3b 37                    cmpl     (%rdi), %esi
0x7f7860ac70fd:  0f 85 4f 00 00 00        jne      0x7f7860ac7152
0x7f7860ac7103:  48 8b 7f 18              movq     0x18(%rdi), %rdi
0x7f7860ac7107:  44 8b 24 3b              movl     (%rbx, %rdi), %r12d
0x7f7860ac710b:  83 c3 04                 addl     $4, %ebx
0x7f7860ac710e:  89 5d 10                 movl     %ebx, 0x10(%rbp)
0x7f7860ac7111:  44 89 65 20              movl     %r12d, 0x20(%rbp)
0x7f7860ac7115:  c7 45 34 08 00 00 00     movl     $8, 0x34(%rbp)
0x7f7860ac711c:  48 8b fd                 movq     %rbp, %rdi
0x7f7860ac711f:  ff 15 53 00 00 00        callq    *0x53(%rip)
0x7f7860ac7125:  ff e0                    jmpq     *%rax
0x7f7860ac7127:  48 8d 05 95 fe ff ff     leaq     -0x16b(%rip), %rax
0x7f7860ac712e:  e9 e5 8e 53 ff           jmp      0x7f7860000018
  -- tb slow paths + alignment
0x7f7860ac7133:  8b f3                    movl     %ebx, %esi
0x7f7860ac7135:  48 8b fd                 movq     %rbp, %rdi
0x7f7860ac7138:  ba 22 00 00 00           movl     $0x22, %edx
0x7f7860ac713d:  48 8d 0d 92 ff ff ff     leaq     -0x6e(%rip), %rcx
0x7f7860ac7144:  ff 15 36 00 00 00        callq    *0x36(%rip)
0x7f7860ac714a:  44 8b e0                 movl     %eax, %r12d
0x7f7860ac714d:  e9 84 ff ff ff           jmp      0x7f7860ac70d6
0x7f7860ac7152:  8b f3                    movl     %ebx, %esi
0x7f7860ac7154:  48 8b fd                 movq     %rbp, %rdi
0x7f7860ac7157:  ba 22 00 00 00           movl     $0x22, %edx
0x7f7860ac715c:  48 8d 0d a8 ff ff ff     leaq     -0x58(%rip), %rcx
0x7f7860ac7163:  ff 15 17 00 00 00        callq    *0x17(%rip)
0x7f7860ac7169:  44 8b e0                 movl     %eax, %r12d
0x7f7860ac716c:  e9 9a ff ff ff           jmp      0x7f7860ac710b
0x7f7860ac7171:  90                       nop      
0x7f7860ac7172:  90                       nop      
0x7f7860ac7173:  90                       nop      
0x7f7860ac7174:  90                       nop      
0x7f7860ac7175:  90                       nop      
0x7f7860ac7176:  90                       nop      
0x7f7860ac7177:  90                       nop      
  data: [size=16]
0x7f7860ac7178:  .quad  0x0000557106c0fae0
0x7f7860ac7180:  .quad  0x0000557106c21270

OUT: [size=512]
  -- guest addr 0x0000000000000397 + tb prologue
0x7f7860ac7280:  8b 5d f0                 movl     -0x10(%rbp), %ebx
0x7f7860ac7283:  85 db                    testl    %ebx, %ebx
0x7f7860ac7285:  0f 8c 35 01 00 00        jl       0x7f7860ac73c0
0x7f7860ac728b:  c7 85 20 db ff ff 00 00  movl     $0, -0x24e0(%rbp)
0x7f7860ac7293:  00 00
0x7f7860ac7295:  8b 5d 10                 movl     0x10(%rbp), %ebx
0x7f7860ac7298:  8b fb                    movl     %ebx, %edi
0x7f7860ac729a:  c1 ef 07                 shrl     $7, %edi
0x7f7860ac729d:  23 bd 10 ff ff ff        andl     -0xf0(%rbp), %edi
0x7f7860ac72a3:  48 03 bd 18 ff ff ff     addq     -0xe8(%rbp), %rdi
0x7f7860ac72aa:  8d 73 03                 leal     3(%rbx), %esi
0x7f7860ac72ad:  81 e6 00 f0 ff ff        andl     $0xfffff000, %esi
0x7f7860ac72b3:  3b 37                    cmpl     (%rdi), %esi
0x7f7860ac72b5:  0f 85 11 01 00 00        jne      0x7f7860ac73cc
0x7f7860ac72bb:  48 8b 7f 18              movq     0x18(%rdi), %rdi
0x7f7860ac72bf:  44 8b 24 3b              movl     (%rbx, %rdi), %r12d
0x7f7860ac72c3:  83 c3 04                 addl     $4, %ebx
0x7f7860ac72c6:  89 5d 10                 movl     %ebx, 0x10(%rbp)
0x7f7860ac72c9:  44 89 65 00              movl     %r12d, (%rbp)
  -- guest addr 0x0000000000000398
0x7f7860ac72cd:  8b fb                    movl     %ebx, %edi
0x7f7860ac72cf:  c1 ef 07                 shrl     $7, %edi
0x7f7860ac72d2:  23 bd 10 ff ff ff        andl     -0xf0(%rbp), %edi
0x7f7860ac72d8:  48 03 bd 18 ff ff ff     addq     -0xe8(%rbp), %rdi
0x7f7860ac72df:  8d 73 03                 leal     3(%rbx), %esi
0x7f7860ac72e2:  81 e6 00 f0 ff ff        andl     $0xfffff000, %esi
0x7f7860ac72e8:  3b 37                    cmpl     (%rdi), %esi
0x7f7860ac72ea:  0f 85 fb 00 00 00        jne      0x7f7860ac73eb
0x7f7860ac72f0:  48 8b 7f 18              movq     0x18(%rdi), %rdi
0x7f7860ac72f4:  44 8b 24 3b              movl     (%rbx, %rdi), %r12d
0x7f7860ac72f8:  83 c3 04                 addl     $4, %ebx
0x7f7860ac72fb:  89 5d 10                 movl     %ebx, 0x10(%rbp)
0x7f7860ac72fe:  44 89 65 08              movl     %r12d, 8(%rbp)
  -- guest addr 0x0000000000000399
0x7f7860ac7302:  83 eb 04                 subl     $4, %ebx
0x7f7860ac7305:  41 bc 7b 20 10 00        movl     $0x10207b, %r12d
0x7f7860ac730b:  8b fb                    movl     %ebx, %edi
0x7f7860ac730d:  c1 ef 07                 shrl     $7, %edi
0x7f7860ac7310:  23 bd 10 ff ff ff        andl     -0xf0(%rbp), %edi
0x7f7860ac7316:  48 03 bd 18 ff ff ff     addq     -0xe8(%rbp), %rdi
0x7f7860ac731d:  8d 73 03                 leal     3(%rbx), %esi
0x7f7860ac7320:  81 e6 00 f0 ff ff        andl     $0xfffff000, %esi
0x7f7860ac7326:  3b 77 08                 cmpl     8(%rdi), %esi
0x7f7860ac7329:  0f 85 db 00 00 00        jne      0x7f7860ac740a
0x7f7860ac732f:  48 8b 7f 18              movq     0x18(%rdi), %rdi
0x7f7860ac7333:  44 89 24 3b              movl     %r12d, (%rbx, %rdi)
0x7f7860ac7337:  89 5d 10                 movl     %ebx, 0x10(%rbp)
  -- guest addr 0x000000000000039e
0x7f7860ac733a:  83 eb 04                 subl     $4, %ebx
0x7f7860ac733d:  45 33 e4                 xorl     %r12d, %r12d
0x7f7860ac7340:  8b fb                    movl     %ebx, %edi
0x7f7860ac7342:  c1 ef 07                 shrl     $7, %edi
0x7f7860ac7345:  23 bd 10 ff ff ff        andl     -0xf0(%rbp), %edi
0x7f7860ac734b:  48 03 bd 18 ff ff ff     addq     -0xe8(%rbp), %rdi
0x7f7860ac7352:  8d 73 03                 leal     3(%rbx), %esi
0x7f7860ac7355:  81 e6 00 f0 ff ff        andl     $0xfffff000, %esi
0x7f7860ac735b:  3b 77 08                 cmpl     8(%rdi), %esi
0x7f7860ac735e:  0f 85 c5 00 00 00        jne      0x7f7860ac7429
0x7f7860ac7364:  48 8b 7f 18              movq     0x18(%rdi), %rdi
0x7f7860ac7368:  44 89 24 3b              movl     %r12d, (%rbx, %rdi)
0x7f7860ac736c:  89 5d 10                 movl     %ebx, 0x10(%rbp)
  -- guest addr 0x00000000000003a0
0x7f7860ac736f:  44 8b 65 20              movl     0x20(%rbp), %r12d
0x7f7860ac7373:  45 8d 6c 24 0e           leal     0xe(%r12), %r13d
0x7f7860ac7378:  83 eb 04                 subl     $4, %ebx
0x7f7860ac737b:  8b fb                    movl     %ebx, %edi
0x7f7860ac737d:  c1 ef 07                 shrl     $7, %edi
0x7f7860ac7380:  23 bd 10 ff ff ff        andl     -0xf0(%rbp), %edi
0x7f7860ac7386:  48 03 bd 18 ff ff ff     addq     -0xe8(%rbp), %rdi
0x7f7860ac738d:  8d 73 03                 leal     3(%rbx), %esi
0x7f7860ac7390:  81 e6 00 f0 ff ff        andl     $0xfffff000, %esi
0x7f7860ac7396:  3b 77 08                 cmpl     8(%rdi), %esi
0x7f7860ac7399:  0f 85 a9 00 00 00        jne      0x7f7860ac7448
0x7f7860ac739f:  48 8b 7f 18              movq     0x18(%rdi), %rdi
0x7f7860ac73a3:  44 89 2c 3b              movl     %r13d, (%rbx, %rdi)
0x7f7860ac73a7:  89 5d 10                 movl     %ebx, 0x10(%rbp)
0x7f7860ac73aa:  41 8d 9c 24 a9 11 00 00  leal     0x11a9(%r12), %ebx
0x7f7860ac73b2:  89 5d 20                 movl     %ebx, 0x20(%rbp)
0x7f7860ac73b5:  48 8b fd                 movq     %rbp, %rdi
0x7f7860ac73b8:  ff 15 aa 00 00 00        callq    *0xaa(%rip)
0x7f7860ac73be:  ff e0                    jmpq     *%rax
0x7f7860ac73c0:  48 8d 05 fc fd ff ff     leaq     -0x204(%rip), %rax
0x7f7860ac73c7:  e9 4c 8c 53 ff           jmp      0x7f7860000018
  -- tb slow paths + alignment
0x7f7860ac73cc:  8b f3                    movl     %ebx, %esi
0x7f7860ac73ce:  48 8b fd                 movq     %rbp, %rdi
0x7f7860ac73d1:  ba 22 00 00 00           movl     $0x22, %edx
0x7f7860ac73d6:  48 8d 0d e6 fe ff ff     leaq     -0x11a(%rip), %rcx
0x7f7860ac73dd:  ff 15 8d 00 00 00        callq    *0x8d(%rip)
0x7f7860ac73e3:  44 8b e0                 movl     %eax, %r12d
0x7f7860ac73e6:  e9 d8 fe ff ff           jmp      0x7f7860ac72c3
0x7f7860ac73eb:  8b f3                    movl     %ebx, %esi
0x7f7860ac73ed:  48 8b fd                 movq     %rbp, %rdi
0x7f7860ac73f0:  ba 22 00 00 00           movl     $0x22, %edx
0x7f7860ac73f5:  48 8d 0d fc fe ff ff     leaq     -0x104(%rip), %rcx
0x7f7860ac73fc:  ff 15 6e 00 00 00        callq    *0x6e(%rip)
0x7f7860ac7402:  44 8b e0                 movl     %eax, %r12d
0x7f7860ac7405:  e9 ee fe ff ff           jmp      0x7f7860ac72f8
0x7f7860ac740a:  8b f3                    movl     %ebx, %esi
0x7f7860ac740c:  41 8b d4                 movl     %r12d, %edx
0x7f7860ac740f:  48 8b fd                 movq     %rbp, %rdi
0x7f7860ac7412:  b9 22 00 00 00           movl     $0x22, %ecx
0x7f7860ac7417:  4c 8d 05 19 ff ff ff     leaq     -0xe7(%rip), %r8
0x7f7860ac741e:  ff 15 54 00 00 00        callq    *0x54(%rip)
0x7f7860ac7424:  e9 0e ff ff ff           jmp      0x7f7860ac7337
0x7f7860ac7429:  8b f3                    movl     %ebx, %esi
0x7f7860ac742b:  41 8b d4                 movl     %r12d, %edx
0x7f7860ac742e:  48 8b fd                 movq     %rbp, %rdi
0x7f7860ac7431:  b9 22 00 00 00           movl     $0x22, %ecx
0x7f7860ac7436:  4c 8d 05 2f ff ff ff     leaq     -0xd1(%rip), %r8
0x7f7860ac743d:  ff 15 35 00 00 00        callq    *0x35(%rip)
0x7f7860ac7443:  e9 24 ff ff ff           jmp      0x7f7860ac736c
0x7f7860ac7448:  8b f3                    movl     %ebx, %esi
0x7f7860ac744a:  41 8b d5                 movl     %r13d, %edx
0x7f7860ac744d:  48 8b fd                 movq     %rbp, %rdi
0x7f7860ac7450:  b9 22 00 00 00           movl     $0x22, %ecx
0x7f7860ac7455:  4c 8d 05 4b ff ff ff     leaq     -0xb5(%rip), %r8
0x7f7860ac745c:  ff 15 16 00 00 00        callq    *0x16(%rip)
0x7f7860ac7462:  e9 40 ff ff ff           jmp      0x7f7860ac73a7
0x7f7860ac7467:  90                       nop      
  data: [size=24]
0x7f7860ac7468:  .quad  0x0000557106c0fae0
0x7f7860ac7470:  .quad  0x0000557106c21270
0x7f7860ac7478:  .quad  0x0000557106c21520

OUT: [size=248]
  -- guest addr 0x00000000000003a5 + tb prologue
0x7f7860ac7580:  8b 5d f0                 movl     -0x10(%rbp), %ebx
0x7f7860ac7583:  85 db                    testl    %ebx, %ebx
0x7f7860ac7585:  0f 8c 99 00 00 00        jl       0x7f7860ac7624
0x7f7860ac758b:  c7 85 20 db ff ff 00 00  movl     $0, -0x24e0(%rbp)
0x7f7860ac7593:  00 00
0x7f7860ac7595:  8b 5d 18                 movl     0x18(%rbp), %ebx
0x7f7860ac7598:  44 8b 65 10              movl     0x10(%rbp), %r12d
0x7f7860ac759c:  41 8b fc                 movl     %r12d, %edi
0x7f7860ac759f:  c1 ef 07                 shrl     $7, %edi
0x7f7860ac75a2:  23 bd 10 ff ff ff        andl     -0xf0(%rbp), %edi
0x7f7860ac75a8:  48 03 bd 18 ff ff ff     addq     -0xe8(%rbp), %rdi
0x7f7860ac75af:  41 8d 74 24 03           leal     3(%r12), %esi
0x7f7860ac75b4:  81 e6 00 f0 ff ff        andl     $0xfffff000, %esi
0x7f7860ac75ba:  3b 77 08                 cmpl     8(%rdi), %esi
0x7f7860ac75bd:  0f 85 6d 00 00 00        jne      0x7f7860ac7630
0x7f7860ac75c3:  48 8b 7f 18              movq     0x18(%rdi), %rdi
0x7f7860ac75c7:  41 89 1c 3c              movl     %ebx, (%r12, %rdi)
  -- guest addr 0x00000000000003a8
0x7f7860ac75cb:  8b 5d 20                 movl     0x20(%rbp), %ebx
0x7f7860ac75ce:  44 8d 6b 08              leal     8(%rbx), %r13d
0x7f7860ac75d2:  41 83 ec 04              subl     $4, %r12d
0x7f7860ac75d6:  41 8b fc                 movl     %r12d, %edi
0x7f7860ac75d9:  c1 ef 07                 shrl     $7, %edi
0x7f7860ac75dc:  23 bd 10 ff ff ff        andl     -0xf0(%rbp), %edi
0x7f7860ac75e2:  48 03 bd 18 ff ff ff     addq     -0xe8(%rbp), %rdi
0x7f7860ac75e9:  41 8d 74 24 03           leal     3(%r12), %esi
0x7f7860ac75ee:  81 e6 00 f0 ff ff        andl     $0xfffff000, %esi
0x7f7860ac75f4:  3b 77 08                 cmpl     8(%rdi), %esi
0x7f7860ac75f7:  0f 85 52 00 00 00        jne      0x7f7860ac764f
0x7f7860ac75fd:  48 8b 7f 18              movq     0x18(%rdi), %rdi
0x7f7860ac7601:  45 89 2c 3c              movl     %r13d, (%r12, %rdi)
0x7f7860ac7605:  44 89 65 10              movl     %r12d, 0x10(%rbp)
0x7f7860ac7609:  81 c3 cb 03 00 00        addl     $0x3cb, %ebx
0x7f7860ac760f:  89 5d 20                 movl     %ebx, 0x20(%rbp)
0x7f7860ac7612:  90                       nop      
0x7f7860ac7613:  e9 00 00 00 00           jmp      0x7f7860ac7618
0x7f7860ac7618:  48 8d 05 a1 fe ff ff     leaq     -0x15f(%rip), %rax
0x7f7860ac761f:  e9 f4 89 53 ff           jmp      0x7f7860000018
0x7f7860ac7624:  48 8d 05 98 fe ff ff     leaq     -0x168(%rip), %rax
0x7f7860ac762b:  e9 e8 89 53 ff           jmp      0x7f7860000018
  -- tb slow paths + alignment
0x7f7860ac7630:  41 8b f4                 movl     %r12d, %esi
0x7f7860ac7633:  8b d3                    movl     %ebx, %edx
0x7f7860ac7635:  48 8b fd                 movq     %rbp, %rdi
0x7f7860ac7638:  b9 22 00 00 00           movl     $0x22, %ecx
0x7f7860ac763d:  4c 8d 05 87 ff ff ff     leaq     -0x79(%rip), %r8
0x7f7860ac7644:  ff 15 26 00 00 00        callq    *0x26(%rip)
0x7f7860ac764a:  e9 7c ff ff ff           jmp      0x7f7860ac75cb
0x7f7860ac764f:  41 8b f4                 movl     %r12d, %esi
0x7f7860ac7652:  41 8b d5                 movl     %r13d, %edx
0x7f7860ac7655:  48 8b fd                 movq     %rbp, %rdi
0x7f7860ac7658:  b9 22 00 00 00           movl     $0x22, %ecx
0x7f7860ac765d:  4c 8d 05 a1 ff ff ff     leaq     -0x5f(%rip), %r8
0x7f7860ac7664:  ff 15 06 00 00 00        callq    *6(%rip)
0x7f7860ac766a:  e9 96 ff ff ff           jmp      0x7f7860ac7605
0x7f7860ac766f:  90                       nop      
  data: [size=8]
0x7f7860ac7670:  .quad  0x0000557106c21520

OUT: [size=592]
  -- guest addr 0x0000000000000770 + tb prologue
0x7f7860ac7780:  8b 5d f0                 movl     -0x10(%rbp), %ebx
0x7f7860ac7783:  85 db                    testl    %ebx, %ebx
0x7f7860ac7785:  0f 8c 5f 01 00 00        jl       0x7f7860ac78ea
0x7f7860ac778b:  c7 85 20 db ff ff 00 00  movl     $0, -0x24e0(%rbp)
0x7f7860ac7793:  00 00
0x7f7860ac7795:  8b 5d 10                 movl     0x10(%rbp), %ebx
0x7f7860ac7798:  83 eb 04                 subl     $4, %ebx
0x7f7860ac779b:  44 8b 65 14              movl     0x14(%rbp), %r12d
0x7f7860ac779f:  8b fb                    movl     %ebx, %edi
0x7f7860ac77a1:  c1 ef 07                 shrl     $7, %edi
0x7f7860ac77a4:  23 bd 10 ff ff ff        andl     -0xf0(%rbp), %edi
0x7f7860ac77aa:  48 03 bd 18 ff ff ff     addq     -0xe8(%rbp), %rdi
0x7f7860ac77b1:  8d 73 03                 leal     3(%rbx), %esi
0x7f7860ac77b4:  81 e6 00 f0 ff ff        andl     $0xfffff000, %esi
0x7f7860ac77ba:  3b 77 08                 cmpl     8(%rdi), %esi
0x7f7860ac77bd:  0f 85 33 01 00 00        jne      0x7f7860ac78f6
0x7f7860ac77c3:  48 8b 7f 18              movq     0x18(%rdi), %rdi
0x7f7860ac77c7:  44 89 24 3b              movl     %r12d, (%rbx, %rdi)
0x7f7860ac77cb:  89 5d 10                 movl     %ebx, 0x10(%rbp)
  -- guest addr 0x0000000000000771
0x7f7860ac77ce:  44 8b e3                 movl     %ebx, %r12d
0x7f7860ac77d1:  44 89 65 14              movl     %r12d, 0x14(%rbp)
  -- guest addr 0x0000000000000773
0x7f7860ac77d5:  41 83 c4 08              addl     $8, %r12d
0x7f7860ac77d9:  41 8b fc                 movl     %r12d, %edi
0x7f7860ac77dc:  c1 ef 07                 shrl     $7, %edi
0x7f7860ac77df:  23 bd 10 ff ff ff        andl     -0xf0(%rbp), %edi
0x7f7860ac77e5:  48 03 bd 18 ff ff ff     addq     -0xe8(%rbp), %rdi
0x7f7860ac77ec:  41 8d 74 24 03           leal     3(%r12), %esi
0x7f7860ac77f1:  81 e6 00 f0 ff ff        andl     $0xfffff000, %esi
0x7f7860ac77f7:  3b 37                    cmpl     (%rdi), %esi
0x7f7860ac77f9:  0f 85 16 01 00 00        jne      0x7f7860ac7915
0x7f7860ac77ff:  48 8b 7f 18              movq     0x18(%rdi), %rdi
0x7f7860ac7803:  45 8b 24 3c              movl     (%r12, %rdi), %r12d
0x7f7860ac7807:  44 89 65 00              movl     %r12d, (%rbp)
  -- guest addr 0x0000000000000776
0x7f7860ac780b:  8b fb                    movl     %ebx, %edi
0x7f7860ac780d:  c1 ef 07                 shrl     $7, %edi
0x7f7860ac7810:  23 bd 10 ff ff ff        andl     -0xf0(%rbp), %edi
0x7f7860ac7816:  48 03 bd 18 ff ff ff     addq     -0xe8(%rbp), %rdi
0x7f7860ac781d:  8d 73 03                 leal     3(%rbx), %esi
0x7f7860ac7820:  81 e6 00 f0 ff ff        andl     $0xfffff000, %esi
0x7f7860ac7826:  3b 37                    cmpl     (%rdi), %esi
0x7f7860ac7828:  0f 85 07 01 00 00        jne      0x7f7860ac7935
0x7f7860ac782e:  48 8b 7f 18              movq     0x18(%rdi), %rdi
0x7f7860ac7832:  44 8b 2c 3b              movl     (%rbx, %rdi), %r13d
0x7f7860ac7836:  83 c3 04                 addl     $4, %ebx
0x7f7860ac7839:  89 5d 10                 movl     %ebx, 0x10(%rbp)
0x7f7860ac783c:  44 89 6d 14              movl     %r13d, 0x14(%rbp)
  -- guest addr 0x0000000000000777
0x7f7860ac7840:  41 bd 54 40 10 00        movl     $0x104054, %r13d
0x7f7860ac7846:  41 8b fd                 movl     %r13d, %edi
0x7f7860ac7849:  c1 ef 07                 shrl     $7, %edi
0x7f7860ac784c:  23 bd 10 ff ff ff        andl     -0xf0(%rbp), %edi
0x7f7860ac7852:  48 03 bd 18 ff ff ff     addq     -0xe8(%rbp), %rdi
0x7f7860ac7859:  41 8d 75 03              leal     3(%r13), %esi
0x7f7860ac785d:  81 e6 00 f0 ff ff        andl     $0xfffff000, %esi
0x7f7860ac7863:  3b 77 08                 cmpl     8(%rdi), %esi
0x7f7860ac7866:  0f 85 e8 00 00 00        jne      0x7f7860ac7954
0x7f7860ac786c:  48 8b 7f 18              movq     0x18(%rdi), %rdi
0x7f7860ac7870:  45 89 64 3d 00           movl     %r12d, (%r13, %rdi)
  -- guest addr 0x000000000000077c
0x7f7860ac7875:  41 bd 50 40 10 00        movl     $0x104050, %r13d
0x7f7860ac787b:  41 8b fd                 movl     %r13d, %edi
0x7f7860ac787e:  c1 ef 07                 shrl     $7, %edi
0x7f7860ac7881:  23 bd 10 ff ff ff        andl     -0xf0(%rbp), %edi
0x7f7860ac7887:  48 03 bd 18 ff ff ff     addq     -0xe8(%rbp), %rdi
0x7f7860ac788e:  41 8d 75 03              leal     3(%r13), %esi
0x7f7860ac7892:  81 e6 00 f0 ff ff        andl     $0xfffff000, %esi
0x7f7860ac7898:  3b 77 08                 cmpl     8(%rdi), %esi
0x7f7860ac789b:  0f 85 d3 00 00 00        jne      0x7f7860ac7974
0x7f7860ac78a1:  48 8b 7f 18              movq     0x18(%rdi), %rdi
0x7f7860ac78a5:  45 89 64 3d 00           movl     %r12d, (%r13, %rdi)
  -- guest addr 0x0000000000000781
0x7f7860ac78aa:  8b fb                    movl     %ebx, %edi
0x7f7860ac78ac:  c1 ef 07                 shrl     $7, %edi
0x7f7860ac78af:  23 bd 10 ff ff ff        andl     -0xf0(%rbp), %edi
0x7f7860ac78b5:  48 03 bd 18 ff ff ff     addq     -0xe8(%rbp), %rdi
0x7f7860ac78bc:  8d 73 03                 leal     3(%rbx), %esi
0x7f7860ac78bf:  81 e6 00 f0 ff ff        andl     $0xfffff000, %esi
0x7f7860ac78c5:  3b 37                    cmpl     (%rdi), %esi
0x7f7860ac78c7:  0f 85 c7 00 00 00        jne      0x7f7860ac7994
0x7f7860ac78cd:  48 8b 7f 18              movq     0x18(%rdi), %rdi
0x7f7860ac78d1:  44 8b 24 3b              movl     (%rbx, %rdi), %r12d
0x7f7860ac78d5:  83 c3 04                 addl     $4, %ebx
0x7f7860ac78d8:  89 5d 10                 movl     %ebx, 0x10(%rbp)
0x7f7860ac78db:  44 89 65 20              movl     %r12d, 0x20(%rbp)
0x7f7860ac78df:  48 8b fd                 movq     %rbp, %rdi
0x7f7860ac78e2:  ff 15 d0 00 00 00        callq    *0xd0(%rip)
0x7f7860ac78e8:  ff e0                    jmpq     *%rax
0x7f7860ac78ea:  48 8d 05 d2 fd ff ff     leaq     -0x22e(%rip), %rax
0x7f7860ac78f1:  e9 22 87 53 ff           jmp      0x7f7860000018
  -- tb slow paths + alignment
0x7f7860ac78f6:  8b f3                    movl     %ebx, %esi
0x7f7860ac78f8:  41 8b d4                 movl     %r12d, %edx
0x7f7860ac78fb:  48 8b fd                 movq     %rbp, %rdi
0x7f7860ac78fe:  b9 22 00 00 00           movl     $0x22, %ecx
0x7f7860ac7903:  4c 8d 05 c1 fe ff ff     leaq     -0x13f(%rip), %r8
0x7f7860ac790a:  ff 15 b8 00 00 00        callq    *0xb8(%rip)
0x7f7860ac7910:  e9 b6 fe ff ff           jmp      0x7f7860ac77cb
0x7f7860ac7915:  41 8b f4                 movl     %r12d, %esi
0x7f7860ac7918:  48 8b fd                 movq     %rbp, %rdi
0x7f7860ac791b:  ba 22 00 00 00           movl     $0x22, %edx
0x7f7860ac7920:  48 8d 0d e0 fe ff ff     leaq     -0x120(%rip), %rcx
0x7f7860ac7927:  ff 15 93 00 00 00        callq    *0x93(%rip)
0x7f7860ac792d:  44 8b e0                 movl     %eax, %r12d
0x7f7860ac7930:  e9 d2 fe ff ff           jmp      0x7f7860ac7807
0x7f7860ac7935:  8b f3                    movl     %ebx, %esi
0x7f7860ac7937:  48 8b fd                 movq     %rbp, %rdi
0x7f7860ac793a:  ba 22 00 00 00           movl     $0x22, %edx
0x7f7860ac793f:  48 8d 0d f0 fe ff ff     leaq     -0x110(%rip), %rcx
0x7f7860ac7946:  ff 15 74 00 00 00        callq    *0x74(%rip)
0x7f7860ac794c:  44 8b e8                 movl     %eax, %r13d
0x7f7860ac794f:  e9 e2 fe ff ff           jmp      0x7f7860ac7836
0x7f7860ac7954:  41 8b f5                 movl     %r13d, %esi
0x7f7860ac7957:  41 8b d4                 movl     %r12d, %edx
0x7f7860ac795a:  48 8b fd                 movq     %rbp, %rdi
0x7f7860ac795d:  b9 22 00 00 00           movl     $0x22, %ecx
0x7f7860ac7962:  4c 8d 05 0c ff ff ff     leaq     -0xf4(%rip), %r8
0x7f7860ac7969:  ff 15 59 00 00 00        callq    *0x59(%rip)
0x7f7860ac796f:  e9 01 ff ff ff           jmp      0x7f7860ac7875
0x7f7860ac7974:  41 8b f5                 movl     %r13d, %esi
0x7f7860ac7977:  41 8b d4                 movl     %r12d, %edx
0x7f7860ac797a:  48 8b fd                 movq     %rbp, %rdi
0x7f7860ac797d:  b9 22 00 00 00           movl     $0x22, %ecx
0x7f7860ac7982:  4c 8d 05 21 ff ff ff     leaq     -0xdf(%rip), %r8
0x7f7860ac7989:  ff 15 39 00 00 00        callq    *0x39(%rip)
0x7f7860ac798f:  e9 16 ff ff ff           jmp      0x7f7860ac78aa
0x7f7860ac7994:  8b f3                    movl     %ebx, %esi
0x7f7860ac7996:  48 8b fd                 movq     %rbp, %rdi
0x7f7860ac7999:  ba 22 00 00 00           movl     $0x22, %edx
0x7f7860ac799e:  48 8d 0d 30 ff ff ff     leaq     -0xd0(%rip), %rcx
0x7f7860ac79a5:  ff 15 15 00 00 00        callq    *0x15(%rip)
0x7f7860ac79ab:  44 8b e0                 movl     %eax, %r12d
0x7f7860ac79ae:  e9 22 ff ff ff           jmp      0x7f7860ac78d5
0x7f7860ac79b3:  90                       nop      
0x7f7860ac79b4:  90                       nop      
0x7f7860ac79b5:  90                       nop      
0x7f7860ac79b6:  90                       nop      
0x7f7860ac79b7:  90                       nop      
  data: [size=24]
0x7f7860ac79b8:  .quad  0x0000557106c0fae0
0x7f7860ac79c0:  .quad  0x0000557106c21270
0x7f7860ac79c8:  .quad  0x0000557106c21520

OUT: [size=512]
  -- guest addr 0x00000000000003ad + tb prologue
0x7f7860ac7ac0:  8b 5d f0                 movl     -0x10(%rbp), %ebx
0x7f7860ac7ac3:  85 db                    testl    %ebx, %ebx
0x7f7860ac7ac5:  0f 8c 35 01 00 00        jl       0x7f7860ac7c00
0x7f7860ac7acb:  c7 85 20 db ff ff 00 00  movl     $0, -0x24e0(%rbp)
0x7f7860ac7ad3:  00 00
0x7f7860ac7ad5:  8b 5d 10                 movl     0x10(%rbp), %ebx
0x7f7860ac7ad8:  8b fb                    movl     %ebx, %edi
0x7f7860ac7ada:  c1 ef 07                 shrl     $7, %edi
0x7f7860ac7add:  23 bd 10 ff ff ff        andl     -0xf0(%rbp), %edi
0x7f7860ac7ae3:  48 03 bd 18 ff ff ff     addq     -0xe8(%rbp), %rdi
0x7f7860ac7aea:  8d 73 03                 leal     3(%rbx), %esi
0x7f7860ac7aed:  81 e6 00 f0 ff ff        andl     $0xfffff000, %esi
0x7f7860ac7af3:  3b 37                    cmpl     (%rdi), %esi
0x7f7860ac7af5:  0f 85 11 01 00 00        jne      0x7f7860ac7c0c
0x7f7860ac7afb:  48 8b 7f 18              movq     0x18(%rdi), %rdi
0x7f7860ac7aff:  44 8b 24 3b              movl     (%rbx, %rdi), %r12d
0x7f7860ac7b03:  83 c3 04                 addl     $4, %ebx
0x7f7860ac7b06:  89 5d 10                 movl     %ebx, 0x10(%rbp)
0x7f7860ac7b09:  44 89 65 04              movl     %r12d, 4(%rbp)
  -- guest addr 0x00000000000003ae
0x7f7860ac7b0d:  8b fb                    movl     %ebx, %edi
0x7f7860ac7b0f:  c1 ef 07                 shrl     $7, %edi
0x7f7860ac7b12:  23 bd 10 ff ff ff        andl     -0xf0(%rbp), %edi
0x7f7860ac7b18:  48 03 bd 18 ff ff ff     addq     -0xe8(%rbp), %rdi
0x7f7860ac7b1f:  8d 73 03                 leal     3(%rbx), %esi
0x7f7860ac7b22:  81 e6 00 f0 ff ff        andl     $0xfffff000, %esi
0x7f7860ac7b28:  3b 37                    cmpl     (%rdi), %esi
0x7f7860ac7b2a:  0f 85 fb 00 00 00        jne      0x7f7860ac7c2b
0x7f7860ac7b30:  48 8b 7f 18              movq     0x18(%rdi), %rdi
0x7f7860ac7b34:  44 8b 24 3b              movl     (%rbx, %rdi), %r12d
0x7f7860ac7b38:  83 c3 04                 addl     $4, %ebx
0x7f7860ac7b3b:  89 5d 10                 movl     %ebx, 0x10(%rbp)
0x7f7860ac7b3e:  44 89 65 18              movl     %r12d, 0x18(%rbp)
  -- guest addr 0x00000000000003af
0x7f7860ac7b42:  83 eb 04                 subl     $4, %ebx
0x7f7860ac7b45:  41 bc 84 22 10 00        movl     $0x102284, %r12d
0x7f7860ac7b4b:  8b fb                    movl     %ebx, %edi
0x7f7860ac7b4d:  c1 ef 07                 shrl     $7, %edi
0x7f7860ac7b50:  23 bd 10 ff ff ff        andl     -0xf0(%rbp), %edi
0x7f7860ac7b56:  48 03 bd 18 ff ff ff     addq     -0xe8(%rbp), %rdi
0x7f7860ac7b5d:  8d 73 03                 leal     3(%rbx), %esi
0x7f7860ac7b60:  81 e6 00 f0 ff ff        andl     $0xfffff000, %esi
0x7f7860ac7b66:  3b 77 08                 cmpl     8(%rdi), %esi
0x7f7860ac7b69:  0f 85 db 00 00 00        jne      0x7f7860ac7c4a
0x7f7860ac7b6f:  48 8b 7f 18              movq     0x18(%rdi), %rdi
0x7f7860ac7b73:  44 89 24 3b              movl     %r12d, (%rbx, %rdi)
0x7f7860ac7b77:  89 5d 10                 movl     %ebx, 0x10(%rbp)
  -- guest addr 0x00000000000003b4
0x7f7860ac7b7a:  83 eb 04                 subl     $4, %ebx
0x7f7860ac7b7d:  45 33 e4                 xorl     %r12d, %r12d
0x7f7860ac7b80:  8b fb                    movl     %ebx, %edi
0x7f7860ac7b82:  c1 ef 07                 shrl     $7, %edi
0x7f7860ac7b85:  23 bd 10 ff ff ff        andl     -0xf0(%rbp), %edi
0x7f7860ac7b8b:  48 03 bd 18 ff ff ff     addq     -0xe8(%rbp), %rdi
0x7f7860ac7b92:  8d 73 03                 leal     3(%rbx), %esi
0x7f7860ac7b95:  81 e6 00 f0 ff ff        andl     $0xfffff000, %esi
0x7f7860ac7b9b:  3b 77 08                 cmpl     8(%rdi), %esi
0x7f7860ac7b9e:  0f 85 c5 00 00 00        jne      0x7f7860ac7c69
0x7f7860ac7ba4:  48 8b 7f 18              movq     0x18(%rdi), %rdi
0x7f7860ac7ba8:  44 89 24 3b              movl     %r12d, (%rbx, %rdi)
0x7f7860ac7bac:  89 5d 10                 movl     %ebx, 0x10(%rbp)
  -- guest addr 0x00000000000003b6
0x7f7860ac7baf:  44 8b 65 20              movl     0x20(%rbp), %r12d
0x7f7860ac7bb3:  45 8d 6c 24 0e           leal     0xe(%r12), %r13d
0x7f7860ac7bb8:  83 eb 04                 subl     $4, %ebx
0x7f7860ac7bbb:  8b fb                    movl     %ebx, %edi
0x7f7860ac7bbd:  c1 ef 07                 shrl     $7, %edi
0x7f7860ac7bc0:  23 bd 10 ff ff ff        andl     -0xf0(%rbp), %edi
0x7f7860ac7bc6:  48 03 bd 18 ff ff ff     addq     -0xe8(%rbp), %rdi
0x7f7860ac7bcd:  8d 73 03                 leal     3(%rbx), %esi
0x7f7860ac7bd0:  81 e6 00 f0 ff ff        andl     $0xfffff000, %esi
0x7f7860ac7bd6:  3b 77 08                 cmpl     8(%rdi), %esi
0x7f7860ac7bd9:  0f 85 a9 00 00 00        jne      0x7f7860ac7c88
0x7f7860ac7bdf:  48 8b 7f 18              movq     0x18(%rdi), %rdi
0x7f7860ac7be3:  44 89 2c 3b              movl     %r13d, (%rbx, %rdi)
0x7f7860ac7be7:  89 5d 10                 movl     %ebx, 0x10(%rbp)
0x7f7860ac7bea:  41 8d 9c 24 93 11 00 00  leal     0x1193(%r12), %ebx
0x7f7860ac7bf2:  89 5d 20                 movl     %ebx, 0x20(%rbp)
0x7f7860ac7bf5:  48 8b fd                 movq     %rbp, %rdi
0x7f7860ac7bf8:  ff 15 aa 00 00 00        callq    *0xaa(%rip)
0x7f7860ac7bfe:  ff e0                    jmpq     *%rax
0x7f7860ac7c00:  48 8d 05 fc fd ff ff     leaq     -0x204(%rip), %rax
0x7f7860ac7c07:  e9 0c 84 53 ff           jmp      0x7f7860000018
  -- tb slow paths + alignment
0x7f7860ac7c0c:  8b f3                    movl     %ebx, %esi
0x7f7860ac7c0e:  48 8b fd                 movq     %rbp, %rdi
0x7f7860ac7c11:  ba 22 00 00 00           movl     $0x22, %edx
0x7f7860ac7c16:  48 8d 0d e6 fe ff ff     leaq     -0x11a(%rip), %rcx
0x7f7860ac7c1d:  ff 15 8d 00 00 00        callq    *0x8d(%rip)
0x7f7860ac7c23:  44 8b e0                 movl     %eax, %r12d
0x7f7860ac7c26:  e9 d8 fe ff ff           jmp      0x7f7860ac7b03
0x7f7860ac7c2b:  8b f3                    movl     %ebx, %esi
0x7f7860ac7c2d:  48 8b fd                 movq     %rbp, %rdi
0x7f7860ac7c30:  ba 22 00 00 00           movl     $0x22, %edx
0x7f7860ac7c35:  48 8d 0d fc fe ff ff     leaq     -0x104(%rip), %rcx
0x7f7860ac7c3c:  ff 15 6e 00 00 00        callq    *0x6e(%rip)
0x7f7860ac7c42:  44 8b e0                 movl     %eax, %r12d
0x7f7860ac7c45:  e9 ee fe ff ff           jmp      0x7f7860ac7b38
0x7f7860ac7c4a:  8b f3                    movl     %ebx, %esi
0x7f7860ac7c4c:  41 8b d4                 movl     %r12d, %edx
0x7f7860ac7c4f:  48 8b fd                 movq     %rbp, %rdi
0x7f7860ac7c52:  b9 22 00 00 00           movl     $0x22, %ecx
0x7f7860ac7c57:  4c 8d 05 19 ff ff ff     leaq     -0xe7(%rip), %r8
0x7f7860ac7c5e:  ff 15 54 00 00 00        callq    *0x54(%rip)
0x7f7860ac7c64:  e9 0e ff ff ff           jmp      0x7f7860ac7b77
0x7f7860ac7c69:  8b f3                    movl     %ebx, %esi
0x7f7860ac7c6b:  41 8b d4                 movl     %r12d, %edx
0x7f7860ac7c6e:  48 8b fd                 movq     %rbp, %rdi
0x7f7860ac7c71:  b9 22 00 00 00           movl     $0x22, %ecx
0x7f7860ac7c76:  4c 8d 05 2f ff ff ff     leaq     -0xd1(%rip), %r8
0x7f7860ac7c7d:  ff 15 35 00 00 00        callq    *0x35(%rip)
0x7f7860ac7c83:  e9 24 ff ff ff           jmp      0x7f7860ac7bac
0x7f7860ac7c88:  8b f3                    movl     %ebx, %esi
0x7f7860ac7c8a:  41 8b d5                 movl     %r13d, %edx
0x7f7860ac7c8d:  48 8b fd                 movq     %rbp, %rdi
0x7f7860ac7c90:  b9 22 00 00 00           movl     $0x22, %ecx
0x7f7860ac7c95:  4c 8d 05 4b ff ff ff     leaq     -0xb5(%rip), %r8
0x7f7860ac7c9c:  ff 15 16 00 00 00        callq    *0x16(%rip)
0x7f7860ac7ca2:  e9 40 ff ff ff           jmp      0x7f7860ac7be7
0x7f7860ac7ca7:  90                       nop      
  data: [size=24]
0x7f7860ac7ca8:  .quad  0x0000557106c0fae0
0x7f7860ac7cb0:  .quad  0x0000557106c21270
0x7f7860ac7cb8:  .quad  0x0000557106c21520

OUT: [size=168]
  -- guest addr 0x00000000000003bb + tb prologue
0x7f7860ac7dc0:  8b 5d f0                 movl     -0x10(%rbp), %ebx
0x7f7860ac7dc3:  85 db                    testl    %ebx, %ebx
0x7f7860ac7dc5:  0f 8c 60 00 00 00        jl       0x7f7860ac7e2b
0x7f7860ac7dcb:  c7 85 20 db ff ff 00 00  movl     $0, -0x24e0(%rbp)
0x7f7860ac7dd3:  00 00
0x7f7860ac7dd5:  8b 5d 20                 movl     0x20(%rbp), %ebx
0x7f7860ac7dd8:  44 8d 63 05              leal     5(%rbx), %r12d
0x7f7860ac7ddc:  44 8b 6d 10              movl     0x10(%rbp), %r13d
0x7f7860ac7de0:  41 83 ed 04              subl     $4, %r13d
0x7f7860ac7de4:  41 8b fd                 movl     %r13d, %edi
0x7f7860ac7de7:  c1 ef 07                 shrl     $7, %edi
0x7f7860ac7dea:  23 bd 10 ff ff ff        andl     -0xf0(%rbp), %edi
0x7f7860ac7df0:  48 03 bd 18 ff ff ff     addq     -0xe8(%rbp), %rdi
0x7f7860ac7df7:  41 8d 75 03              leal     3(%r13), %esi
0x7f7860ac7dfb:  81 e6 00 f0 ff ff        andl     $0xfffff000, %esi
0x7f7860ac7e01:  3b 77 08                 cmpl     8(%rdi), %esi
0x7f7860ac7e04:  0f 85 2d 00 00 00        jne      0x7f7860ac7e37
0x7f7860ac7e0a:  48 8b 7f 18              movq     0x18(%rdi), %rdi
0x7f7860ac7e0e:  45 89 64 3d 00           movl     %r12d, (%r13, %rdi)
0x7f7860ac7e13:  44 89 6d 10              movl     %r13d, 0x10(%rbp)
0x7f7860ac7e17:  81 c3 05 16 00 00        addl     $0x1605, %ebx
0x7f7860ac7e1d:  89 5d 20                 movl     %ebx, 0x20(%rbp)
0x7f7860ac7e20:  48 8b fd                 movq     %rbp, %rdi
0x7f7860ac7e23:  ff 15 2f 00 00 00        callq    *0x2f(%rip)
0x7f7860ac7e29:  ff e0                    jmpq     *%rax
0x7f7860ac7e2b:  48 8d 05 d1 fe ff ff     leaq     -0x12f(%rip), %rax
0x7f7860ac7e32:  e9 e1 81 53 ff           jmp      0x7f7860000018
  -- tb slow paths + alignment
0x7f7860ac7e37:  41 8b f5                 movl     %r13d, %esi
0x7f7860ac7e3a:  41 8b d4                 movl     %r12d, %edx
0x7f7860ac7e3d:  48 8b fd                 movq     %rbp, %rdi
0x7f7860ac7e40:  b9 22 00 00 00           movl     $0x22, %ecx
0x7f7860ac7e45:  4c 8d 05 c7 ff ff ff     leaq     -0x39(%rip), %r8
0x7f7860ac7e4c:  ff 15 0e 00 00 00        callq    *0xe(%rip)
0x7f7860ac7e52:  e9 bc ff ff ff           jmp      0x7f7860ac7e13
0x7f7860ac7e57:  90                       nop      
  data: [size=16]
0x7f7860ac7e58:  .quad  0x0000557106c0fae0
0x7f7860ac7e60:  .quad  0x0000557106c21520

OUT: [size=448]
  -- guest addr 0x00000000000009c0 + tb prologue
0x7f7860ac7f40:  8b 5d f0                 movl     -0x10(%rbp), %ebx
0x7f7860ac7f43:  85 db                    testl    %ebx, %ebx
0x7f7860ac7f45:  0f 8c 1b 01 00 00        jl       0x7f7860ac8066
0x7f7860ac7f4b:  c7 85 20 db ff ff 00 00  movl     $0, -0x24e0(%rbp)
0x7f7860ac7f53:  00 00
0x7f7860ac7f55:  8b 5d 10                 movl     0x10(%rbp), %ebx
0x7f7860ac7f58:  83 eb 04                 subl     $4, %ebx
0x7f7860ac7f5b:  44 8b 65 14              movl     0x14(%rbp), %r12d
0x7f7860ac7f5f:  8b fb                    movl     %ebx, %edi
0x7f7860ac7f61:  c1 ef 07                 shrl     $7, %edi
0x7f7860ac7f64:  23 bd 10 ff ff ff        andl     -0xf0(%rbp), %edi
0x7f7860ac7f6a:  48 03 bd 18 ff ff ff     addq     -0xe8(%rbp), %rdi
0x7f7860ac7f71:  8d 73 03                 leal     3(%rbx), %esi
0x7f7860ac7f74:  81 e6 00 f0 ff ff        andl     $0xfffff000, %esi
0x7f7860ac7f7a:  3b 77 08                 cmpl     8(%rdi), %esi
0x7f7860ac7f7d:  0f 85 ef 00 00 00        jne      0x7f7860ac8072
0x7f7860ac7f83:  48 8b 7f 18              movq     0x18(%rdi), %rdi
0x7f7860ac7f87:  44 89 24 3b              movl     %r12d, (%rbx, %rdi)
  -- guest addr 0x00000000000009c1
0x7f7860ac7f8b:  89 5d 14                 movl     %ebx, 0x14(%rbp)
  -- guest addr 0x00000000000009c3
0x7f7860ac7f8e:  83 eb 10                 subl     $0x10, %ebx
0x7f7860ac7f91:  89 5d 10                 movl     %ebx, 0x10(%rbp)
0x7f7860ac7f94:  c7 45 2c 10 00 00 00     movl     $0x10, 0x2c(%rbp)
0x7f7860ac7f9b:  89 5d 28                 movl     %ebx, 0x28(%rbp)
  -- guest addr 0x00000000000009c6
0x7f7860ac7f9e:  83 eb 04                 subl     $4, %ebx
0x7f7860ac7fa1:  41 bc 50 19 10 00        movl     $0x101950, %r12d
0x7f7860ac7fa7:  8b fb                    movl     %ebx, %edi
0x7f7860ac7fa9:  c1 ef 07                 shrl     $7, %edi
0x7f7860ac7fac:  23 bd 10 ff ff ff        andl     -0xf0(%rbp), %edi
0x7f7860ac7fb2:  48 03 bd 18 ff ff ff     addq     -0xe8(%rbp), %rdi
0x7f7860ac7fb9:  8d 73 03                 leal     3(%rbx), %esi
0x7f7860ac7fbc:  81 e6 00 f0 ff ff        andl     $0xfffff000, %esi
0x7f7860ac7fc2:  3b 77 08                 cmpl     8(%rdi), %esi
0x7f7860ac7fc5:  0f 85 c6 00 00 00        jne      0x7f7860ac8091
0x7f7860ac7fcb:  48 8b 7f 18              movq     0x18(%rdi), %rdi
0x7f7860ac7fcf:  44 89 24 3b              movl     %r12d, (%rbx, %rdi)
0x7f7860ac7fd3:  89 5d 10                 movl     %ebx, 0x10(%rbp)
  -- guest addr 0x00000000000009cb
0x7f7860ac7fd6:  83 eb 04                 subl     $4, %ebx
0x7f7860ac7fd9:  41 bc 21 00 00 00        movl     $0x21, %r12d
0x7f7860ac7fdf:  8b fb                    movl     %ebx, %edi
0x7f7860ac7fe1:  c1 ef 07                 shrl     $7, %edi
0x7f7860ac7fe4:  23 bd 10 ff ff ff        andl     -0xf0(%rbp), %edi
0x7f7860ac7fea:  48 03 bd 18 ff ff ff     addq     -0xe8(%rbp), %rdi
0x7f7860ac7ff1:  8d 73 03                 leal     3(%rbx), %esi
0x7f7860ac7ff4:  81 e6 00 f0 ff ff        andl     $0xfffff000, %esi
0x7f7860ac7ffa:  3b 77 08                 cmpl     8(%rdi), %esi
0x7f7860ac7ffd:  0f 85 ad 00 00 00        jne      0x7f7860ac80b0
0x7f7860ac8003:  48 8b 7f 18              movq     0x18(%rdi), %rdi
0x7f7860ac8007:  44 89 24 3b              movl     %r12d, (%rbx, %rdi)
0x7f7860ac800b:  89 5d 10                 movl     %ebx, 0x10(%rbp)
  -- guest addr 0x00000000000009cd
0x7f7860ac800e:  44 8b 65 20              movl     0x20(%rbp), %r12d
0x7f7860ac8012:  45 8d 6c 24 12           leal     0x12(%r12), %r13d
0x7f7860ac8017:  83 eb 04                 subl     $4, %ebx
0x7f7860ac801a:  8b fb                    movl     %ebx, %edi
0x7f7860ac801c:  c1 ef 07                 shrl     $7, %edi
0x7f7860ac801f:  23 bd 10 ff ff ff        andl     -0xf0(%rbp), %edi
0x7f7860ac8025:  48 03 bd 18 ff ff ff     addq     -0xe8(%rbp), %rdi
0x7f7860ac802c:  8d 73 03                 leal     3(%rbx), %esi
0x7f7860ac802f:  81 e6 00 f0 ff ff        andl     $0xfffff000, %esi
0x7f7860ac8035:  3b 77 08                 cmpl     8(%rdi), %esi
0x7f7860ac8038:  0f 85 91 00 00 00        jne      0x7f7860ac80cf
0x7f7860ac803e:  48 8b 7f 18              movq     0x18(%rdi), %rdi
0x7f7860ac8042:  44 89 2c 3b              movl     %r13d, (%rbx, %rdi)
0x7f7860ac8046:  89 5d 10                 movl     %ebx, 0x10(%rbp)
0x7f7860ac8049:  c7 45 34 10 00 00 00     movl     $0x10, 0x34(%rbp)
0x7f7860ac8050:  41 8d 9c 24 c0 ee ff ff  leal     -0x1140(%r12), %ebx
0x7f7860ac8058:  89 5d 20                 movl     %ebx, 0x20(%rbp)
0x7f7860ac805b:  48 8b fd                 movq     %rbp, %rdi
0x7f7860ac805e:  ff 15 8c 00 00 00        callq    *0x8c(%rip)
0x7f7860ac8064:  ff e0                    jmpq     *%rax
0x7f7860ac8066:  48 8d 05 16 fe ff ff     leaq     -0x1ea(%rip), %rax
0x7f7860ac806d:  e9 a6 7f 53 ff           jmp      0x7f7860000018
  -- tb slow paths + alignment
0x7f7860ac8072:  8b f3                    movl     %ebx, %esi
0x7f7860ac8074:  41 8b d4                 movl     %r12d, %edx
0x7f7860ac8077:  48 8b fd                 movq     %rbp, %rdi
0x7f7860ac807a:  b9 22 00 00 00           movl     $0x22, %ecx
0x7f7860ac807f:  4c 8d 05 05 ff ff ff     leaq     -0xfb(%rip), %r8
0x7f7860ac8086:  ff 15 6c 00 00 00        callq    *0x6c(%rip)
0x7f7860ac808c:  e9 fa fe ff ff           jmp      0x7f7860ac7f8b
0x7f7860ac8091:  8b f3                    movl     %ebx, %esi
0x7f7860ac8093:  41 8b d4                 movl     %r12d, %edx
0x7f7860ac8096:  48 8b fd                 movq     %rbp, %rdi
0x7f7860ac8099:  b9 22 00 00 00           movl     $0x22, %ecx
0x7f7860ac809e:  4c 8d 05 2e ff ff ff     leaq     -0xd2(%rip), %r8
0x7f7860ac80a5:  ff 15 4d 00 00 00        callq    *0x4d(%rip)
0x7f7860ac80ab:  e9 23 ff ff ff           jmp      0x7f7860ac7fd3
0x7f7860ac80b0:  8b f3                    movl     %ebx, %esi
0x7f7860ac80b2:  41 8b d4                 movl     %r12d, %edx
0x7f7860ac80b5:  48 8b fd                 movq     %rbp, %rdi
0x7f7860ac80b8:  b9 22 00 00 00           movl     $0x22, %ecx
0x7f7860ac80bd:  4c 8d 05 47 ff ff ff     leaq     -0xb9(%rip), %r8
0x7f7860ac80c4:  ff 15 2e 00 00 00        callq    *0x2e(%rip)
0x7f7860ac80ca:  e9 3c ff ff ff           jmp      0x7f7860ac800b
0x7f7860ac80cf:  8b f3                    movl     %ebx, %esi
0x7f7860ac80d1:  41 8b d5                 movl     %r13d, %edx
0x7f7860ac80d4:  48 8b fd                 movq     %rbp, %rdi
0x7f7860ac80d7:  b9 22 00 00 00           movl     $0x22, %ecx
0x7f7860ac80dc:  4c 8d 05 63 ff ff ff     leaq     -0x9d(%rip), %r8
0x7f7860ac80e3:  ff 15 0f 00 00 00        callq    *0xf(%rip)
0x7f7860ac80e9:  e9 58 ff ff ff           jmp      0x7f7860ac8046
0x7f7860ac80ee:  90                       nop      
0x7f7860ac80ef:  90                       nop      
  data: [size=16]
0x7f7860ac80f0:  .quad  0x0000557106c0fae0
0x7f7860ac80f8:  .quad  0x0000557106c21520

OUT: [size=600]
  -- guest addr 0x0000000000000880 + tb prologue
0x7f7860ac8200:  8b 5d f0                 movl     -0x10(%rbp), %ebx
0x7f7860ac8203:  85 db                    testl    %ebx, %ebx
0x7f7860ac8205:  0f 8c 91 01 00 00        jl       0x7f7860ac839c
0x7f7860ac820b:  c7 85 20 db ff ff 00 00  movl     $0, -0x24e0(%rbp)
0x7f7860ac8213:  00 00
0x7f7860ac8215:  8b 5d 10                 movl     0x10(%rbp), %ebx
0x7f7860ac8218:  83 eb 04                 subl     $4, %ebx
0x7f7860ac821b:  44 8b 65 14              movl     0x14(%rbp), %r12d
0x7f7860ac821f:  8b fb                    movl     %ebx, %edi
0x7f7860ac8221:  c1 ef 07                 shrl     $7, %edi
0x7f7860ac8224:  23 bd 10 ff ff ff        andl     -0xf0(%rbp), %edi
0x7f7860ac822a:  48 03 bd 18 ff ff ff     addq     -0xe8(%rbp), %rdi
0x7f7860ac8231:  8d 73 03                 leal     3(%rbx), %esi
0x7f7860ac8234:  81 e6 00 f0 ff ff        andl     $0xfffff000, %esi
0x7f7860ac823a:  3b 77 08                 cmpl     8(%rdi), %esi
0x7f7860ac823d:  0f 85 65 01 00 00        jne      0x7f7860ac83a8
0x7f7860ac8243:  48 8b 7f 18              movq     0x18(%rdi), %rdi
0x7f7860ac8247:  44 89 24 3b              movl     %r12d, (%rbx, %rdi)
0x7f7860ac824b:  89 5d 10                 movl     %ebx, 0x10(%rbp)
  -- guest addr 0x0000000000000881
0x7f7860ac824e:  44 8b e3                 movl     %ebx, %r12d
0x7f7860ac8251:  44 89 65 14              movl     %r12d, 0x14(%rbp)
  -- guest addr 0x0000000000000883
0x7f7860ac8255:  83 eb 04                 subl     $4, %ebx
0x7f7860ac8258:  44 8b 6d 1c              movl     0x1c(%rbp), %r13d
0x7f7860ac825c:  8b fb                    movl     %ebx, %edi
0x7f7860ac825e:  c1 ef 07                 shrl     $7, %edi
0x7f7860ac8261:  23 bd 10 ff ff ff        andl     -0xf0(%rbp), %edi
0x7f7860ac8267:  48 03 bd 18 ff ff ff     addq     -0xe8(%rbp), %rdi
0x7f7860ac826e:  8d 73 03                 leal     3(%rbx), %esi
0x7f7860ac8271:  81 e6 00 f0 ff ff        andl     $0xfffff000, %esi
0x7f7860ac8277:  3b 77 08                 cmpl     8(%rdi), %esi
0x7f7860ac827a:  0f 85 47 01 00 00        jne      0x7f7860ac83c7
0x7f7860ac8280:  48 8b 7f 18              movq     0x18(%rdi), %rdi
0x7f7860ac8284:  44 89 2c 3b              movl     %r13d, (%rbx, %rdi)
0x7f7860ac8288:  89 5d 10                 movl     %ebx, 0x10(%rbp)
  -- guest addr 0x0000000000000884
0x7f7860ac828b:  83 eb 04                 subl     $4, %ebx
0x7f7860ac828e:  44 8b 6d 18              movl     0x18(%rbp), %r13d
0x7f7860ac8292:  8b fb                    movl     %ebx, %edi
0x7f7860ac8294:  c1 ef 07                 shrl     $7, %edi
0x7f7860ac8297:  23 bd 10 ff ff ff        andl     -0xf0(%rbp), %edi
0x7f7860ac829d:  48 03 bd 18 ff ff ff     addq     -0xe8(%rbp), %rdi
0x7f7860ac82a4:  8d 73 03                 leal     3(%rbx), %esi
0x7f7860ac82a7:  81 e6 00 f0 ff ff        andl     $0xfffff000, %esi
0x7f7860ac82ad:  3b 77 08                 cmpl     8(%rdi), %esi
0x7f7860ac82b0:  0f 85 30 01 00 00        jne      0x7f7860ac83e6
0x7f7860ac82b6:  48 8b 7f 18              movq     0x18(%rdi), %rdi
0x7f7860ac82ba:  44 89 2c 3b              movl     %r13d, (%rbx, %rdi)
0x7f7860ac82be:  89 5d 10                 movl     %ebx, 0x10(%rbp)
  -- guest addr 0x0000000000000885
0x7f7860ac82c1:  83 eb 04                 subl     $4, %ebx
0x7f7860ac82c4:  44 8b 6d 0c              movl     0xc(%rbp), %r13d
0x7f7860ac82c8:  8b fb                    movl     %ebx, %edi
0x7f7860ac82ca:  c1 ef 07                 shrl     $7, %edi
0x7f7860ac82cd:  23 bd 10 ff ff ff        andl     -0xf0(%rbp), %edi
0x7f7860ac82d3:  48 03 bd 18 ff ff ff     addq     -0xe8(%rbp), %rdi
0x7f7860ac82da:  8d 73 03                 leal     3(%rbx), %esi
0x7f7860ac82dd:  81 e6 00 f0 ff ff        andl     $0xfffff000, %esi
0x7f7860ac82e3:  3b 77 08                 cmpl     8(%rdi), %esi
0x7f7860ac82e6:  0f 85 19 01 00 00        jne      0x7f7860ac8405
0x7f7860ac82ec:  48 8b 7f 18              movq     0x18(%rdi), %rdi
0x7f7860ac82f0:  44 89 2c 3b              movl     %r13d, (%rbx, %rdi)
  -- guest addr 0x0000000000000886
0x7f7860ac82f4:  83 eb 0c                 subl     $0xc, %ebx
0x7f7860ac82f7:  89 5d 10                 movl     %ebx, 0x10(%rbp)
0x7f7860ac82fa:  c7 45 2c 0c 00 00 00     movl     $0xc, 0x2c(%rbp)
0x7f7860ac8301:  89 5d 28                 movl     %ebx, 0x28(%rbp)
  -- guest addr 0x0000000000000889
0x7f7860ac8304:  41 8d 5c 24 08           leal     8(%r12), %ebx
0x7f7860ac8309:  8b fb                    movl     %ebx, %edi
0x7f7860ac830b:  c1 ef 07                 shrl     $7, %edi
0x7f7860ac830e:  23 bd 10 ff ff ff        andl     -0xf0(%rbp), %edi
0x7f7860ac8314:  48 03 bd 18 ff ff ff     addq     -0xe8(%rbp), %rdi
0x7f7860ac831b:  8d 73 03                 leal     3(%rbx), %esi
0x7f7860ac831e:  81 e6 00 f0 ff ff        andl     $0xfffff000, %esi
0x7f7860ac8324:  3b 37                    cmpl     (%rdi), %esi
0x7f7860ac8326:  0f 85 f8 00 00 00        jne      0x7f7860ac8424
0x7f7860ac832c:  48 8b 7f 18              movq     0x18(%rdi), %rdi
0x7f7860ac8330:  8b 1c 3b                 movl     (%rbx, %rdi), %ebx
0x7f7860ac8333:  89 5d 00                 movl     %ebx, (%rbp)
  -- guest addr 0x000000000000088c
0x7f7860ac8336:  44 0f b6 e3              movzbl   %bl, %r12d
0x7f7860ac833a:  44 89 65 18              movl     %r12d, 0x18(%rbp)
  -- guest addr 0x000000000000088f
0x7f7860ac833e:  c7 45 2c 07 00 00 00     movl     $7, 0x2c(%rbp)
0x7f7860ac8345:  44 8b e3                 movl     %ebx, %r12d
0x7f7860ac8348:  41 83 ec 07              subl     $7, %r12d
0x7f7860ac834c:  44 89 65 28              movl     %r12d, 0x28(%rbp)
  -- guest addr 0x0000000000000891
0x7f7860ac8350:  0f b6 db                 movzbl   %bl, %ebx
0x7f7860ac8353:  c7 45 34 0e 00 00 00     movl     $0xe, 0x34(%rbp)
0x7f7860ac835a:  83 fb 07                 cmpl     $7, %ebx
0x7f7860ac835d:  0f 86 1d 00 00 00        jbe      0x7f7860ac8380
0x7f7860ac8363:  8b 5d 20                 movl     0x20(%rbp), %ebx
0x7f7860ac8366:  83 c3 13                 addl     $0x13, %ebx
0x7f7860ac8369:  89 5d 20                 movl     %ebx, 0x20(%rbp)
0x7f7860ac836c:  66 66 90                 nop      
0x7f7860ac836f:  e9 00 00 00 00           jmp      0x7f7860ac8374
0x7f7860ac8374:  48 8d 05 c6 fd ff ff     leaq     -0x23a(%rip), %rax
0x7f7860ac837b:  e9 98 7c 53 ff           jmp      0x7f7860000018
0x7f7860ac8380:  8b 5d 20                 movl     0x20(%rbp), %ebx
0x7f7860ac8383:  83 c3 50                 addl     $0x50, %ebx
0x7f7860ac8386:  89 5d 20                 movl     %ebx, 0x20(%rbp)
0x7f7860ac8389:  66 90                    nop      
0x7f7860ac838b:  e9 00 00 00 00           jmp      0x7f7860ac8390
0x7f7860ac8390:  48 8d 05 a9 fd ff ff     leaq     -0x257(%rip), %rax
0x7f7860ac8397:  e9 7c 7c 53 ff           jmp      0x7f7860000018
0x7f7860ac839c:  48 8d 05 a0 fd ff ff     leaq     -0x260(%rip), %rax
0x7f7860ac83a3:  e9 70 7c 53 ff           jmp      0x7f7860000018
  -- tb slow paths + alignment
0x7f7860ac83a8:  8b f3                    movl     %ebx, %esi
0x7f7860ac83aa:  41 8b d4                 movl     %r12d, %edx
0x7f7860ac83ad:  48 8b fd                 movq     %rbp, %rdi
0x7f7860ac83b0:  b9 22 00 00 00           movl     $0x22, %ecx
0x7f7860ac83b5:  4c 8d 05 8f fe ff ff     leaq     -0x171(%rip), %r8
0x7f7860ac83bc:  ff 15 8e 00 00 00        callq    *0x8e(%rip)
0x7f7860ac83c2:  e9 84 fe ff ff           jmp      0x7f7860ac824b
0x7f7860ac83c7:  8b f3                    movl     %ebx, %esi
0x7f7860ac83c9:  41 8b d5                 movl     %r13d, %edx
0x7f7860ac83cc:  48 8b fd                 movq     %rbp, %rdi
0x7f7860ac83cf:  b9 22 00 00 00           movl     $0x22, %ecx
0x7f7860ac83d4:  4c 8d 05 ad fe ff ff     leaq     -0x153(%rip), %r8
0x7f7860ac83db:  ff 15 6f 00 00 00        callq    *0x6f(%rip)
0x7f7860ac83e1:  e9 a2 fe ff ff           jmp      0x7f7860ac8288
0x7f7860ac83e6:  8b f3                    movl     %ebx, %esi
0x7f7860ac83e8:  41 8b d5                 movl     %r13d, %edx
0x7f7860ac83eb:  48 8b fd                 movq     %rbp, %rdi
0x7f7860ac83ee:  b9 22 00 00 00           movl     $0x22, %ecx
0x7f7860ac83f3:  4c 8d 05 c4 fe ff ff     leaq     -0x13c(%rip), %r8
0x7f7860ac83fa:  ff 15 50 00 00 00        callq    *0x50(%rip)
0x7f7860ac8400:  e9 b9 fe ff ff           jmp      0x7f7860ac82be
0x7f7860ac8405:  8b f3                    movl     %ebx, %esi
0x7f7860ac8407:  41 8b d5                 movl     %r13d, %edx
0x7f7860ac840a:  48 8b fd                 movq     %rbp, %rdi
0x7f7860ac840d:  b9 22 00 00 00           movl     $0x22, %ecx
0x7f7860ac8412:  4c 8d 05 db fe ff ff     leaq     -0x125(%rip), %r8
0x7f7860ac8419:  ff 15 31 00 00 00        callq    *0x31(%rip)
0x7f7860ac841f:  e9 d0 fe ff ff           jmp      0x7f7860ac82f4
0x7f7860ac8424:  8b f3                    movl     %ebx, %esi
0x7f7860ac8426:  48 8b fd                 movq     %rbp, %rdi
0x7f7860ac8429:  ba 22 00 00 00           movl     $0x22, %edx
0x7f7860ac842e:  48 8d 0d fe fe ff ff     leaq     -0x102(%rip), %rcx
0x7f7860ac8435:  ff 15 0d 00 00 00        callq    *0xd(%rip)
0x7f7860ac843b:  8b d8                    movl     %eax, %ebx
0x7f7860ac843d:  e9 f1 fe ff ff           jmp      0x7f7860ac8333
0x7f7860ac8442:  90                       nop      
0x7f7860ac8443:  90                       nop      
0x7f7860ac8444:  90                       nop      
0x7f7860ac8445:  90                       nop      
0x7f7860ac8446:  90                       nop      
0x7f7860ac8447:  90                       nop      
  data: [size=16]
0x7f7860ac8448:  .quad  0x0000557106c21270
0x7f7860ac8450:  .quad  0x0000557106c21520

OUT: [size=296]
  -- guest addr 0x0000000000000893 + tb prologue
0x7f7860ac8540:  8b 5d f0                 movl     -0x10(%rbp), %ebx
0x7f7860ac8543:  85 db                    testl    %ebx, %ebx
0x7f7860ac8545:  0f 8c c9 00 00 00        jl       0x7f7860ac8614
0x7f7860ac854b:  c7 85 20 db ff ff 00 00  movl     $0, -0x24e0(%rbp)
0x7f7860ac8553:  00 00
0x7f7860ac8555:  8b 5d 00                 movl     (%rbp), %ebx
0x7f7860ac8558:  83 eb 08                 subl     $8, %ebx
0x7f7860ac855b:  89 5d 00                 movl     %ebx, (%rbp)
  -- guest addr 0x0000000000000896
0x7f7860ac855e:  c7 45 1c a1 00 00 00     movl     $0xa1, 0x1c(%rbp)
  -- guest addr 0x000000000000089b
0x7f7860ac8565:  0f b6 db                 movzbl   %bl, %ebx
0x7f7860ac8568:  89 5d 0c                 movl     %ebx, 0xc(%rbp)
  -- guest addr 0x000000000000089e
0x7f7860ac856b:  8b 5d 10                 movl     0x10(%rbp), %ebx
0x7f7860ac856e:  83 eb 0c                 subl     $0xc, %ebx
0x7f7860ac8571:  89 5d 10                 movl     %ebx, 0x10(%rbp)
0x7f7860ac8574:  c7 45 2c 0c 00 00 00     movl     $0xc, 0x2c(%rbp)
0x7f7860ac857b:  89 5d 28                 movl     %ebx, 0x28(%rbp)
  -- guest addr 0x00000000000008a1
0x7f7860ac857e:  83 eb 04                 subl     $4, %ebx
0x7f7860ac8581:  41 bc a1 00 00 00        movl     $0xa1, %r12d
0x7f7860ac8587:  8b fb                    movl     %ebx, %edi
0x7f7860ac8589:  c1 ef 07                 shrl     $7, %edi
0x7f7860ac858c:  23 bd 10 ff ff ff        andl     -0xf0(%rbp), %edi
0x7f7860ac8592:  48 03 bd 18 ff ff ff     addq     -0xe8(%rbp), %rdi
0x7f7860ac8599:  8d 73 03                 leal     3(%rbx), %esi
0x7f7860ac859c:  81 e6 00 f0 ff ff        andl     $0xfffff000, %esi
0x7f7860ac85a2:  3b 77 08                 cmpl     8(%rdi), %esi
0x7f7860ac85a5:  0f 85 75 00 00 00        jne      0x7f7860ac8620
0x7f7860ac85ab:  48 8b 7f 18              movq     0x18(%rdi), %rdi
0x7f7860ac85af:  44 89 24 3b              movl     %r12d, (%rbx, %rdi)
0x7f7860ac85b3:  89 5d 10                 movl     %ebx, 0x10(%rbp)
  -- guest addr 0x00000000000008a2
0x7f7860ac85b6:  44 8b 65 20              movl     0x20(%rbp), %r12d
0x7f7860ac85ba:  45 8d 6c 24 14           leal     0x14(%r12), %r13d
0x7f7860ac85bf:  83 eb 04                 subl     $4, %ebx
0x7f7860ac85c2:  8b fb                    movl     %ebx, %edi
0x7f7860ac85c4:  c1 ef 07                 shrl     $7, %edi
0x7f7860ac85c7:  23 bd 10 ff ff ff        andl     -0xf0(%rbp), %edi
0x7f7860ac85cd:  48 03 bd 18 ff ff ff     addq     -0xe8(%rbp), %rdi
0x7f7860ac85d4:  8d 73 03                 leal     3(%rbx), %esi
0x7f7860ac85d7:  81 e6 00 f0 ff ff        andl     $0xfffff000, %esi
0x7f7860ac85dd:  3b 77 08                 cmpl     8(%rdi), %esi
0x7f7860ac85e0:  0f 85 59 00 00 00        jne      0x7f7860ac863f
0x7f7860ac85e6:  48 8b 7f 18              movq     0x18(%rdi), %rdi
0x7f7860ac85ea:  44 89 2c 3b              movl     %r13d, (%rbx, %rdi)
0x7f7860ac85ee:  89 5d 10                 movl     %ebx, 0x10(%rbp)
0x7f7860ac85f1:  c7 45 34 10 00 00 00     movl     $0x10, 0x34(%rbp)
0x7f7860ac85f8:  41 8d 9c 24 8d fa ff ff  leal     -0x573(%r12), %ebx
0x7f7860ac8600:  89 5d 20                 movl     %ebx, 0x20(%rbp)
0x7f7860ac8603:  e9 00 00 00 00           jmp      0x7f7860ac8608
0x7f7860ac8608:  48 8d 05 71 fe ff ff     leaq     -0x18f(%rip), %rax
0x7f7860ac860f:  e9 04 7a 53 ff           jmp      0x7f7860000018
0x7f7860ac8614:  48 8d 05 68 fe ff ff     leaq     -0x198(%rip), %rax
0x7f7860ac861b:  e9 f8 79 53 ff           jmp      0x7f7860000018
  -- tb slow paths + alignment
0x7f7860ac8620:  8b f3                    movl     %ebx, %esi
0x7f7860ac8622:  41 8b d4                 movl     %r12d, %edx
0x7f7860ac8625:  48 8b fd                 movq     %rbp, %rdi
0x7f7860ac8628:  b9 22 00 00 00           movl     $0x22, %ecx
0x7f7860ac862d:  4c 8d 05 7f ff ff ff     leaq     -0x81(%rip), %r8
0x7f7860ac8634:  ff 15 26 00 00 00        callq    *0x26(%rip)
0x7f7860ac863a:  e9 74 ff ff ff           jmp      0x7f7860ac85b3
0x7f7860ac863f:  8b f3                    movl     %ebx, %esi
0x7f7860ac8641:  41 8b d5                 movl     %r13d, %edx
0x7f7860ac8644:  48 8b fd                 movq     %rbp, %rdi
0x7f7860ac8647:  b9 22 00 00 00           movl     $0x22, %ecx
0x7f7860ac864c:  4c 8d 05 9b ff ff ff     leaq     -0x65(%rip), %r8
0x7f7860ac8653:  ff 15 07 00 00 00        callq    *7(%rip)
0x7f7860ac8659:  e9 90 ff ff ff           jmp      0x7f7860ac85ee
0x7f7860ac865e:  90                       nop      
0x7f7860ac865f:  90                       nop      
  data: [size=8]
0x7f7860ac8660:  .quad  0x0000557106c21520

OUT: [size=592]
  -- guest addr 0x00000000000008a7 + tb prologue
0x7f7860ac8740:  8b 5d f0                 movl     -0x10(%rbp), %ebx
0x7f7860ac8743:  85 db                    testl    %ebx, %ebx
0x7f7860ac8745:  0f 8c 85 01 00 00        jl       0x7f7860ac88d0
0x7f7860ac874b:  c7 85 20 db ff ff 00 00  movl     $0, -0x24e0(%rbp)
0x7f7860ac8753:  00 00
0x7f7860ac8755:  8b 5d 10                 movl     0x10(%rbp), %ebx
0x7f7860ac8758:  8b fb                    movl     %ebx, %edi
0x7f7860ac875a:  c1 ef 07                 shrl     $7, %edi
0x7f7860ac875d:  23 bd 10 ff ff ff        andl     -0xf0(%rbp), %edi
0x7f7860ac8763:  48 03 bd 18 ff ff ff     addq     -0xe8(%rbp), %rdi
0x7f7860ac876a:  8d 73 03                 leal     3(%rbx), %esi
0x7f7860ac876d:  81 e6 00 f0 ff ff        andl     $0xfffff000, %esi
0x7f7860ac8773:  3b 37                    cmpl     (%rdi), %esi
0x7f7860ac8775:  0f 85 61 01 00 00        jne      0x7f7860ac88dc
0x7f7860ac877b:  48 8b 7f 18              movq     0x18(%rdi), %rdi
0x7f7860ac877f:  44 8b 24 3b              movl     (%rbx, %rdi), %r12d
0x7f7860ac8783:  83 c3 04                 addl     $4, %ebx
0x7f7860ac8786:  89 5d 10                 movl     %ebx, 0x10(%rbp)
0x7f7860ac8789:  44 89 65 08              movl     %r12d, 8(%rbp)
  -- guest addr 0x00000000000008a8
0x7f7860ac878d:  8b fb                    movl     %ebx, %edi
0x7f7860ac878f:  c1 ef 07                 shrl     $7, %edi
0x7f7860ac8792:  23 bd 10 ff ff ff        andl     -0xf0(%rbp), %edi
0x7f7860ac8798:  48 03 bd 18 ff ff ff     addq     -0xe8(%rbp), %rdi
0x7f7860ac879f:  8d 73 03                 leal     3(%rbx), %esi
0x7f7860ac87a2:  81 e6 00 f0 ff ff        andl     $0xfffff000, %esi
0x7f7860ac87a8:  3b 37                    cmpl     (%rdi), %esi
0x7f7860ac87aa:  0f 85 4b 01 00 00        jne      0x7f7860ac88fb
0x7f7860ac87b0:  48 8b 7f 18              movq     0x18(%rdi), %rdi
0x7f7860ac87b4:  44 8b 24 3b              movl     (%rbx, %rdi), %r12d
0x7f7860ac87b8:  83 c3 04                 addl     $4, %ebx
0x7f7860ac87bb:  89 5d 10                 movl     %ebx, 0x10(%rbp)
0x7f7860ac87be:  44 89 65 04              movl     %r12d, 4(%rbp)
  -- guest addr 0x00000000000008a9
0x7f7860ac87c2:  44 8b 65 0c              movl     0xc(%rbp), %r12d
0x7f7860ac87c6:  41 83 e4 1f              andl     $0x1f, %r12d
0x7f7860ac87ca:  41 bd 01 00 00 00        movl     $1, %r13d
0x7f7860ac87d0:  c4 42 19 f7 f5           shlxl    %r12d, %r13d, %r14d
0x7f7860ac87d5:  44 8b 7d 00              movl     (%rbp), %r15d
0x7f7860ac87d9:  c4 42 1b f7 e7           shrxl    %r12d, %r15d, %r12d
0x7f7860ac87de:  c4 42 08 f2 f7           andnl    %r15d, %r14d, %r14d
0x7f7860ac87e3:  8b 4d 34                 movl     0x34(%rbp), %ecx
0x7f7860ac87e6:  8b 55 30                 movl     0x30(%rbp), %edx
0x7f7860ac87e9:  8b 75 2c                 movl     0x2c(%rbp), %esi
0x7f7860ac87ec:  8b 7d 28                 movl     0x28(%rbp), %edi
0x7f7860ac87ef:  ff 15 83 01 00 00        callq    *0x183(%rip)
0x7f7860ac87f5:  44 0f ac e0 01           shrdl    $1, %r12d, %eax
0x7f7860ac87fa:  41 8b cd                 movl     %r13d, %ecx
0x7f7860ac87fd:  d3 c0                    roll     %cl, %eax
0x7f7860ac87ff:  89 45 2c                 movl     %eax, 0x2c(%rbp)
  -- guest addr 0x00000000000008ac
0x7f7860ac8802:  45 0f b6 e6              movzbl   %r14b, %r12d
0x7f7860ac8806:  44 89 65 00              movl     %r12d, (%rbp)
  -- guest addr 0x00000000000008af
0x7f7860ac880a:  83 eb 04                 subl     $4, %ebx
0x7f7860ac880d:  8b fb                    movl     %ebx, %edi
0x7f7860ac880f:  c1 ef 07                 shrl     $7, %edi
0x7f7860ac8812:  23 bd 10 ff ff ff        andl     -0xf0(%rbp), %edi
0x7f7860ac8818:  48 03 bd 18 ff ff ff     addq     -0xe8(%rbp), %rdi
0x7f7860ac881f:  8d 73 03                 leal     3(%rbx), %esi
0x7f7860ac8822:  81 e6 00 f0 ff ff        andl     $0xfffff000, %esi
0x7f7860ac8828:  3b 77 08                 cmpl     8(%rdi), %esi
0x7f7860ac882b:  0f 85 e9 00 00 00        jne      0x7f7860ac891a
0x7f7860ac8831:  48 8b 7f 18              movq     0x18(%rdi), %rdi
0x7f7860ac8835:  44 89 24 3b              movl     %r12d, (%rbx, %rdi)
0x7f7860ac8839:  89 5d 10                 movl     %ebx, 0x10(%rbp)
  -- guest addr 0x00000000000008b0
0x7f7860ac883c:  83 eb 04                 subl     $4, %ebx
0x7f7860ac883f:  44 8b 65 1c              movl     0x1c(%rbp), %r12d
0x7f7860ac8843:  8b fb                    movl     %ebx, %edi
0x7f7860ac8845:  c1 ef 07                 shrl     $7, %edi
0x7f7860ac8848:  23 bd 10 ff ff ff        andl     -0xf0(%rbp), %edi
0x7f7860ac884e:  48 03 bd 18 ff ff ff     addq     -0xe8(%rbp), %rdi
0x7f7860ac8855:  8d 73 03                 leal     3(%rbx), %esi
0x7f7860ac8858:  81 e6 00 f0 ff ff        andl     $0xfffff000, %esi
0x7f7860ac885e:  3b 77 08                 cmpl     8(%rdi), %esi
0x7f7860ac8861:  0f 85 d2 00 00 00        jne      0x7f7860ac8939
0x7f7860ac8867:  48 8b 7f 18              movq     0x18(%rdi), %rdi
0x7f7860ac886b:  44 89 24 3b              movl     %r12d, (%rbx, %rdi)
0x7f7860ac886f:  89 5d 10                 movl     %ebx, 0x10(%rbp)
  -- guest addr 0x00000000000008b1
0x7f7860ac8872:  44 8b 65 20              movl     0x20(%rbp), %r12d
0x7f7860ac8876:  45 8d 74 24 0f           leal     0xf(%r12), %r14d
0x7f7860ac887b:  83 eb 04                 subl     $4, %ebx
0x7f7860ac887e:  8b fb                    movl     %ebx, %edi
0x7f7860ac8880:  c1 ef 07                 shrl     $7, %edi
0x7f7860ac8883:  23 bd 10 ff ff ff        andl     -0xf0(%rbp), %edi
0x7f7860ac8889:  48 03 bd 18 ff ff ff     addq     -0xe8(%rbp), %rdi
0x7f7860ac8890:  8d 73 03                 leal     3(%rbx), %esi
0x7f7860ac8893:  81 e6 00 f0 ff ff        andl     $0xfffff000, %esi
0x7f7860ac8899:  3b 77 08                 cmpl     8(%rdi), %esi
0x7f7860ac889c:  0f 85 b6 00 00 00        jne      0x7f7860ac8958
0x7f7860ac88a2:  48 8b 7f 18              movq     0x18(%rdi), %rdi
0x7f7860ac88a6:  44 89 34 3b              movl     %r14d, (%rbx, %rdi)
0x7f7860ac88aa:  89 5d 10                 movl     %ebx, 0x10(%rbp)
0x7f7860ac88ad:  44 89 6d 34              movl     %r13d, 0x34(%rbp)
0x7f7860ac88b1:  41 8d 9c 24 80 fa ff ff  leal     -0x580(%r12), %ebx
0x7f7860ac88b9:  89 5d 20                 movl     %ebx, 0x20(%rbp)
0x7f7860ac88bc:  66 66 90                 nop      
0x7f7860ac88bf:  e9 00 00 00 00           jmp      0x7f7860ac88c4
0x7f7860ac88c4:  48 8d 05 b5 fd ff ff     leaq     -0x24b(%rip), %rax
0x7f7860ac88cb:  e9 48 77 53 ff           jmp      0x7f7860000018
0x7f7860ac88d0:  48 8d 05 ac fd ff ff     leaq     -0x254(%rip), %rax
0x7f7860ac88d7:  e9 3c 77 53 ff           jmp      0x7f7860000018
  -- tb slow paths + alignment
0x7f7860ac88dc:  8b f3                    movl     %ebx, %esi
0x7f7860ac88de:  48 8b fd                 movq     %rbp, %rdi
0x7f7860ac88e1:  ba 22 00 00 00           movl     $0x22, %edx
0x7f7860ac88e6:  48 8d 0d 96 fe ff ff     leaq     -0x16a(%rip), %rcx
0x7f7860ac88ed:  ff 15 8d 00 00 00        callq    *0x8d(%rip)
0x7f7860ac88f3:  44 8b e0                 movl     %eax, %r12d
0x7f7860ac88f6:  e9 88 fe ff ff           jmp      0x7f7860ac8783
0x7f7860ac88fb:  8b f3                    movl     %ebx, %esi
0x7f7860ac88fd:  48 8b fd                 movq     %rbp, %rdi
0x7f7860ac8900:  ba 22 00 00 00           movl     $0x22, %edx
0x7f7860ac8905:  48 8d 0d ac fe ff ff     leaq     -0x154(%rip), %rcx
0x7f7860ac890c:  ff 15 6e 00 00 00        callq    *0x6e(%rip)
0x7f7860ac8912:  44 8b e0                 movl     %eax, %r12d
0x7f7860ac8915:  e9 9e fe ff ff           jmp      0x7f7860ac87b8
0x7f7860ac891a:  8b f3                    movl     %ebx, %esi
0x7f7860ac891c:  41 8b d4                 movl     %r12d, %edx
0x7f7860ac891f:  48 8b fd                 movq     %rbp, %rdi
0x7f7860ac8922:  b9 22 00 00 00           movl     $0x22, %ecx
0x7f7860ac8927:  4c 8d 05 0b ff ff ff     leaq     -0xf5(%rip), %r8
0x7f7860ac892e:  ff 15 54 00 00 00        callq    *0x54(%rip)
0x7f7860ac8934:  e9 00 ff ff ff           jmp      0x7f7860ac8839
0x7f7860ac8939:  8b f3                    movl     %ebx, %esi
0x7f7860ac893b:  41 8b d4                 movl     %r12d, %edx
0x7f7860ac893e:  48 8b fd                 movq     %rbp, %rdi
0x7f7860ac8941:  b9 22 00 00 00           movl     $0x22, %ecx
0x7f7860ac8946:  4c 8d 05 22 ff ff ff     leaq     -0xde(%rip), %r8
0x7f7860ac894d:  ff 15 35 00 00 00        callq    *0x35(%rip)
0x7f7860ac8953:  e9 17 ff ff ff           jmp      0x7f7860ac886f
0x7f7860ac8958:  8b f3                    movl     %ebx, %esi
0x7f7860ac895a:  41 8b d6                 movl     %r14d, %edx
0x7f7860ac895d:  48 8b fd                 movq     %rbp, %rdi
0x7f7860ac8960:  b9 22 00 00 00           movl     $0x22, %ecx
0x7f7860ac8965:  4c 8d 05 3e ff ff ff     leaq     -0xc2(%rip), %r8
0x7f7860ac896c:  ff 15 16 00 00 00        callq    *0x16(%rip)
0x7f7860ac8972:  e9 33 ff ff ff           jmp      0x7f7860ac88aa
0x7f7860ac8977:  90                       nop      
  data: [size=24]
0x7f7860ac8978:  .quad  0x0000557106b26e80
0x7f7860ac8980:  .quad  0x0000557106c21270
0x7f7860ac8988:  .quad  0x0000557106c21520

OUT: [size=712]
  -- guest addr 0x00000000000008b6 + tb prologue
0x7f7860ac8a80:  8b 5d f0                 movl     -0x10(%rbp), %ebx
0x7f7860ac8a83:  85 db                    testl    %ebx, %ebx
0x7f7860ac8a85:  0f 8c b9 01 00 00        jl       0x7f7860ac8c44
0x7f7860ac8a8b:  c7 85 20 db ff ff 00 00  movl     $0, -0x24e0(%rbp)
0x7f7860ac8a93:  00 00
0x7f7860ac8a95:  8b 5d 14                 movl     0x14(%rbp), %ebx
0x7f7860ac8a98:  44 8d 63 0c              leal     0xc(%rbx), %r12d
0x7f7860ac8a9c:  41 8b fc                 movl     %r12d, %edi
0x7f7860ac8a9f:  c1 ef 07                 shrl     $7, %edi
0x7f7860ac8aa2:  23 bd 10 ff ff ff        andl     -0xf0(%rbp), %edi
0x7f7860ac8aa8:  48 03 bd 18 ff ff ff     addq     -0xe8(%rbp), %rdi
0x7f7860ac8aaf:  41 8d 74 24 03           leal     3(%r12), %esi
0x7f7860ac8ab4:  81 e6 00 f0 ff ff        andl     $0xfffff000, %esi
0x7f7860ac8aba:  3b 37                    cmpl     (%rdi), %esi
0x7f7860ac8abc:  0f 85 8e 01 00 00        jne      0x7f7860ac8c50
0x7f7860ac8ac2:  48 8b 7f 18              movq     0x18(%rdi), %rdi
0x7f7860ac8ac6:  45 8b 24 3c              movl     (%r12, %rdi), %r12d
0x7f7860ac8aca:  44 89 65 00              movl     %r12d, (%rbp)
  -- guest addr 0x00000000000008b9
0x7f7860ac8ace:  44 8b 6d 10              movl     0x10(%rbp), %r13d
0x7f7860ac8ad2:  41 83 c5 10              addl     $0x10, %r13d
0x7f7860ac8ad6:  44 89 6d 10              movl     %r13d, 0x10(%rbp)
0x7f7860ac8ada:  c7 45 2c 10 00 00 00     movl     $0x10, 0x2c(%rbp)
0x7f7860ac8ae1:  44 89 6d 28              movl     %r13d, 0x28(%rbp)
  -- guest addr 0x00000000000008bc
0x7f7860ac8ae5:  44 8b 6d 18              movl     0x18(%rbp), %r13d
0x7f7860ac8ae9:  41 c1 e5 02              shll     $2, %r13d
0x7f7860ac8aed:  41 81 c5 60 40 10 00     addl     $0x104060, %r13d
0x7f7860ac8af4:  41 8b fd                 movl     %r13d, %edi
0x7f7860ac8af7:  c1 ef 07                 shrl     $7, %edi
0x7f7860ac8afa:  23 bd 10 ff ff ff        andl     -0xf0(%rbp), %edi
0x7f7860ac8b00:  48 03 bd 18 ff ff ff     addq     -0xe8(%rbp), %rdi
0x7f7860ac8b07:  41 8d 75 03              leal     3(%r13), %esi
0x7f7860ac8b0b:  81 e6 00 f0 ff ff        andl     $0xfffff000, %esi
0x7f7860ac8b11:  3b 77 08                 cmpl     8(%rdi), %esi
0x7f7860ac8b14:  0f 85 56 01 00 00        jne      0x7f7860ac8c70
0x7f7860ac8b1a:  48 8b 7f 18              movq     0x18(%rdi), %rdi
0x7f7860ac8b1e:  45 89 64 3d 00           movl     %r12d, (%r13, %rdi)
  -- guest addr 0x00000000000008c3
0x7f7860ac8b23:  83 c3 f4                 addl     $-0xc, %ebx
0x7f7860ac8b26:  89 5d 10                 movl     %ebx, 0x10(%rbp)
  -- guest addr 0x00000000000008c6
0x7f7860ac8b29:  8b fb                    movl     %ebx, %edi
0x7f7860ac8b2b:  c1 ef 07                 shrl     $7, %edi
0x7f7860ac8b2e:  23 bd 10 ff ff ff        andl     -0xf0(%rbp), %edi
0x7f7860ac8b34:  48 03 bd 18 ff ff ff     addq     -0xe8(%rbp), %rdi
0x7f7860ac8b3b:  8d 73 03                 leal     3(%rbx), %esi
0x7f7860ac8b3e:  81 e6 00 f0 ff ff        andl     $0xfffff000, %esi
0x7f7860ac8b44:  3b 37                    cmpl     (%rdi), %esi
0x7f7860ac8b46:  0f 85 44 01 00 00        jne      0x7f7860ac8c90
0x7f7860ac8b4c:  48 8b 7f 18              movq     0x18(%rdi), %rdi
0x7f7860ac8b50:  44 8b 24 3b              movl     (%rbx, %rdi), %r12d
0x7f7860ac8b54:  83 c3 04                 addl     $4, %ebx
0x7f7860ac8b57:  89 5d 10                 movl     %ebx, 0x10(%rbp)
0x7f7860ac8b5a:  44 89 65 0c              movl     %r12d, 0xc(%rbp)
  -- guest addr 0x00000000000008c7
0x7f7860ac8b5e:  8b fb                    movl     %ebx, %edi
0x7f7860ac8b60:  c1 ef 07                 shrl     $7, %edi
0x7f7860ac8b63:  23 bd 10 ff ff ff        andl     -0xf0(%rbp), %edi
0x7f7860ac8b69:  48 03 bd 18 ff ff ff     addq     -0xe8(%rbp), %rdi
0x7f7860ac8b70:  8d 73 03                 leal     3(%rbx), %esi
0x7f7860ac8b73:  81 e6 00 f0 ff ff        andl     $0xfffff000, %esi
0x7f7860ac8b79:  3b 37                    cmpl     (%rdi), %esi
0x7f7860ac8b7b:  0f 85 2e 01 00 00        jne      0x7f7860ac8caf
0x7f7860ac8b81:  48 8b 7f 18              movq     0x18(%rdi), %rdi
0x7f7860ac8b85:  44 8b 24 3b              movl     (%rbx, %rdi), %r12d
0x7f7860ac8b89:  83 c3 04                 addl     $4, %ebx
0x7f7860ac8b8c:  89 5d 10                 movl     %ebx, 0x10(%rbp)
0x7f7860ac8b8f:  44 89 65 18              movl     %r12d, 0x18(%rbp)
  -- guest addr 0x00000000000008c8
0x7f7860ac8b93:  8b fb                    movl     %ebx, %edi
0x7f7860ac8b95:  c1 ef 07                 shrl     $7, %edi
0x7f7860ac8b98:  23 bd 10 ff ff ff        andl     -0xf0(%rbp), %edi
0x7f7860ac8b9e:  48 03 bd 18 ff ff ff     addq     -0xe8(%rbp), %rdi
0x7f7860ac8ba5:  8d 73 03                 leal     3(%rbx), %esi
0x7f7860ac8ba8:  81 e6 00 f0 ff ff        andl     $0xfffff000, %esi
0x7f7860ac8bae:  3b 37                    cmpl     (%rdi), %esi
0x7f7860ac8bb0:  0f 85 18 01 00 00        jne      0x7f7860ac8cce
0x7f7860ac8bb6:  48 8b 7f 18              movq     0x18(%rdi), %rdi
0x7f7860ac8bba:  44 8b 24 3b              movl     (%rbx, %rdi), %r12d
0x7f7860ac8bbe:  83 c3 04                 addl     $4, %ebx
0x7f7860ac8bc1:  89 5d 10                 movl     %ebx, 0x10(%rbp)
0x7f7860ac8bc4:  44 89 65 1c              movl     %r12d, 0x1c(%rbp)
  -- guest addr 0x00000000000008c9
0x7f7860ac8bc8:  8b fb                    movl     %ebx, %edi
0x7f7860ac8bca:  c1 ef 07                 shrl     $7, %edi
0x7f7860ac8bcd:  23 bd 10 ff ff ff        andl     -0xf0(%rbp), %edi
0x7f7860ac8bd3:  48 03 bd 18 ff ff ff     addq     -0xe8(%rbp), %rdi
0x7f7860ac8bda:  8d 73 03                 leal     3(%rbx), %esi
0x7f7860ac8bdd:  81 e6 00 f0 ff ff        andl     $0xfffff000, %esi
0x7f7860ac8be3:  3b 37                    cmpl     (%rdi), %esi
0x7f7860ac8be5:  0f 85 02 01 00 00        jne      0x7f7860ac8ced
0x7f7860ac8beb:  48 8b 7f 18              movq     0x18(%rdi), %rdi
0x7f7860ac8bef:  44 8b 24 3b              movl     (%rbx, %rdi), %r12d
0x7f7860ac8bf3:  83 c3 04                 addl     $4, %ebx
0x7f7860ac8bf6:  89 5d 10                 movl     %ebx, 0x10(%rbp)
0x7f7860ac8bf9:  44 89 65 14              movl     %r12d, 0x14(%rbp)
  -- guest addr 0x00000000000008ca
0x7f7860ac8bfd:  8b fb                    movl     %ebx, %edi
0x7f7860ac8bff:  c1 ef 07                 shrl     $7, %edi
0x7f7860ac8c02:  23 bd 10 ff ff ff        andl     -0xf0(%rbp), %edi
0x7f7860ac8c08:  48 03 bd 18 ff ff ff     addq     -0xe8(%rbp), %rdi
0x7f7860ac8c0f:  8d 73 03                 leal     3(%rbx), %esi
0x7f7860ac8c12:  81 e6 00 f0 ff ff        andl     $0xfffff000, %esi
0x7f7860ac8c18:  3b 37                    cmpl     (%rdi), %esi
0x7f7860ac8c1a:  0f 85 ec 00 00 00        jne      0x7f7860ac8d0c
0x7f7860ac8c20:  48 8b 7f 18              movq     0x18(%rdi), %rdi
0x7f7860ac8c24:  44 8b 24 3b              movl     (%rbx, %rdi), %r12d
0x7f7860ac8c28:  83 c3 04                 addl     $4, %ebx
0x7f7860ac8c2b:  89 5d 10                 movl     %ebx, 0x10(%rbp)
0x7f7860ac8c2e:  44 89 65 20              movl     %r12d, 0x20(%rbp)
0x7f7860ac8c32:  c7 45 34 08 00 00 00     movl     $8, 0x34(%rbp)
0x7f7860ac8c39:  48 8b fd                 movq     %rbp, %rdi
0x7f7860ac8c3c:  ff 15 ee 00 00 00        callq    *0xee(%rip)
0x7f7860ac8c42:  ff e0                    jmpq     *%rax
0x7f7860ac8c44:  48 8d 05 78 fd ff ff     leaq     -0x288(%rip), %rax
0x7f7860ac8c4b:  e9 c8 73 53 ff           jmp      0x7f7860000018
  -- tb slow paths + alignment
0x7f7860ac8c50:  41 8b f4                 movl     %r12d, %esi
0x7f7860ac8c53:  48 8b fd                 movq     %rbp, %rdi
0x7f7860ac8c56:  ba 22 00 00 00           movl     $0x22, %edx
0x7f7860ac8c5b:  48 8d 0d 68 fe ff ff     leaq     -0x198(%rip), %rcx
0x7f7860ac8c62:  ff 15 d0 00 00 00        callq    *0xd0(%rip)
0x7f7860ac8c68:  44 8b e0                 movl     %eax, %r12d
0x7f7860ac8c6b:  e9 5a fe ff ff           jmp      0x7f7860ac8aca
0x7f7860ac8c70:  41 8b f5                 movl     %r13d, %esi
0x7f7860ac8c73:  41 8b d4                 movl     %r12d, %edx
0x7f7860ac8c76:  48 8b fd                 movq     %rbp, %rdi
0x7f7860ac8c79:  b9 22 00 00 00           movl     $0x22, %ecx
0x7f7860ac8c7e:  4c 8d 05 9e fe ff ff     leaq     -0x162(%rip), %r8
0x7f7860ac8c85:  ff 15 b5 00 00 00        callq    *0xb5(%rip)
0x7f7860ac8c8b:  e9 93 fe ff ff           jmp      0x7f7860ac8b23
0x7f7860ac8c90:  8b f3                    movl     %ebx, %esi
0x7f7860ac8c92:  48 8b fd                 movq     %rbp, %rdi
0x7f7860ac8c95:  ba 22 00 00 00           movl     $0x22, %edx
0x7f7860ac8c9a:  48 8d 0d b3 fe ff ff     leaq     -0x14d(%rip), %rcx
0x7f7860ac8ca1:  ff 15 91 00 00 00        callq    *0x91(%rip)
0x7f7860ac8ca7:  44 8b e0                 movl     %eax, %r12d
0x7f7860ac8caa:  e9 a5 fe ff ff           jmp      0x7f7860ac8b54
0x7f7860ac8caf:  8b f3                    movl     %ebx, %esi
0x7f7860ac8cb1:  48 8b fd                 movq     %rbp, %rdi
0x7f7860ac8cb4:  ba 22 00 00 00           movl     $0x22, %edx
0x7f7860ac8cb9:  48 8d 0d c9 fe ff ff     leaq     -0x137(%rip), %rcx
0x7f7860ac8cc0:  ff 15 72 00 00 00        callq    *0x72(%rip)
0x7f7860ac8cc6:  44 8b e0                 movl     %eax, %r12d
0x7f7860ac8cc9:  e9 bb fe ff ff           jmp      0x7f7860ac8b89
0x7f7860ac8cce:  8b f3                    movl     %ebx, %esi
0x7f7860ac8cd0:  48 8b fd                 movq     %rbp, %rdi
0x7f7860ac8cd3:  ba 22 00 00 00           movl     $0x22, %edx
0x7f7860ac8cd8:  48 8d 0d df fe ff ff     leaq     -0x121(%rip), %rcx
0x7f7860ac8cdf:  ff 15 53 00 00 00        callq    *0x53(%rip)
0x7f7860ac8ce5:  44 8b e0                 movl     %eax, %r12d
0x7f7860ac8ce8:  e9 d1 fe ff ff           jmp      0x7f7860ac8bbe
0x7f7860ac8ced:  8b f3                    movl     %ebx, %esi
0x7f7860ac8cef:  48 8b fd                 movq     %rbp, %rdi
0x7f7860ac8cf2:  ba 22 00 00 00           movl     $0x22, %edx
0x7f7860ac8cf7:  48 8d 0d f5 fe ff ff     leaq     -0x10b(%rip), %rcx
0x7f7860ac8cfe:  ff 15 34 00 00 00        callq    *0x34(%rip)
0x7f7860ac8d04:  44 8b e0                 movl     %eax, %r12d
0x7f7860ac8d07:  e9 e7 fe ff ff           jmp      0x7f7860ac8bf3
0x7f7860ac8d0c:  8b f3                    movl     %ebx, %esi
0x7f7860ac8d0e:  48 8b fd                 movq     %rbp, %rdi
0x7f7860ac8d11:  ba 22 00 00 00           movl     $0x22, %edx
0x7f7860ac8d16:  48 8d 0d 0b ff ff ff     leaq     -0xf5(%rip), %rcx
0x7f7860ac8d1d:  ff 15 15 00 00 00        callq    *0x15(%rip)
0x7f7860ac8d23:  44 8b e0                 movl     %eax, %r12d
0x7f7860ac8d26:  e9 fd fe ff ff           jmp      0x7f7860ac8c28
0x7f7860ac8d2b:  90                       nop      
0x7f7860ac8d2c:  90                       nop      
0x7f7860ac8d2d:  90                       nop      
0x7f7860ac8d2e:  90                       nop      
0x7f7860ac8d2f:  90                       nop      
  data: [size=24]
0x7f7860ac8d30:  .quad  0x0000557106c0fae0
0x7f7860ac8d38:  .quad  0x0000557106c21270
0x7f7860ac8d40:  .quad  0x0000557106c21520

OUT: [size=264]
  -- guest addr 0x00000000000009d2 + tb prologue
0x7f7860ac8e40:  8b 5d f0                 movl     -0x10(%rbp), %ebx
0x7f7860ac8e43:  85 db                    testl    %ebx, %ebx
0x7f7860ac8e45:  0f 8c 9c 00 00 00        jl       0x7f7860ac8ee7
0x7f7860ac8e4b:  c7 85 20 db ff ff 00 00  movl     $0, -0x24e0(%rbp)
0x7f7860ac8e53:  00 00
0x7f7860ac8e55:  8b 5d 10                 movl     0x10(%rbp), %ebx
0x7f7860ac8e58:  83 c3 10                 addl     $0x10, %ebx
0x7f7860ac8e5b:  89 5d 10                 movl     %ebx, 0x10(%rbp)
0x7f7860ac8e5e:  c7 45 2c 10 00 00 00     movl     $0x10, 0x2c(%rbp)
0x7f7860ac8e65:  89 5d 28                 movl     %ebx, 0x28(%rbp)
  -- guest addr 0x00000000000009d5
0x7f7860ac8e68:  8b 5d 14                 movl     0x14(%rbp), %ebx
0x7f7860ac8e6b:  8b fb                    movl     %ebx, %edi
0x7f7860ac8e6d:  c1 ef 07                 shrl     $7, %edi
0x7f7860ac8e70:  23 bd 10 ff ff ff        andl     -0xf0(%rbp), %edi
0x7f7860ac8e76:  48 03 bd 18 ff ff ff     addq     -0xe8(%rbp), %rdi
0x7f7860ac8e7d:  8d 73 03                 leal     3(%rbx), %esi
0x7f7860ac8e80:  81 e6 00 f0 ff ff        andl     $0xfffff000, %esi
0x7f7860ac8e86:  3b 37                    cmpl     (%rdi), %esi
0x7f7860ac8e88:  0f 85 65 00 00 00        jne      0x7f7860ac8ef3
0x7f7860ac8e8e:  48 8b 7f 18              movq     0x18(%rdi), %rdi
0x7f7860ac8e92:  44 8b 24 3b              movl     (%rbx, %rdi), %r12d
0x7f7860ac8e96:  83 c3 04                 addl     $4, %ebx
0x7f7860ac8e99:  44 89 65 14              movl     %r12d, 0x14(%rbp)
0x7f7860ac8e9d:  89 5d 10                 movl     %ebx, 0x10(%rbp)
  -- guest addr 0x00000000000009d6
0x7f7860ac8ea0:  8b fb                    movl     %ebx, %edi
0x7f7860ac8ea2:  c1 ef 07                 shrl     $7, %edi
0x7f7860ac8ea5:  23 bd 10 ff ff ff        andl     -0xf0(%rbp), %edi
0x7f7860ac8eab:  48 03 bd 18 ff ff ff     addq     -0xe8(%rbp), %rdi
0x7f7860ac8eb2:  8d 73 03                 leal     3(%rbx), %esi
0x7f7860ac8eb5:  81 e6 00 f0 ff ff        andl     $0xfffff000, %esi
0x7f7860ac8ebb:  3b 37                    cmpl     (%rdi), %esi
0x7f7860ac8ebd:  0f 85 4f 00 00 00        jne      0x7f7860ac8f12
0x7f7860ac8ec3:  48 8b 7f 18              movq     0x18(%rdi), %rdi
0x7f7860ac8ec7:  44 8b 24 3b              movl     (%rbx, %rdi), %r12d
0x7f7860ac8ecb:  83 c3 04                 addl     $4, %ebx
0x7f7860ac8ece:  89 5d 10                 movl     %ebx, 0x10(%rbp)
0x7f7860ac8ed1:  44 89 65 20              movl     %r12d, 0x20(%rbp)
0x7f7860ac8ed5:  c7 45 34 08 00 00 00     movl     $8, 0x34(%rbp)
0x7f7860ac8edc:  48 8b fd                 movq     %rbp, %rdi
0x7f7860ac8edf:  ff 15 53 00 00 00        callq    *0x53(%rip)
0x7f7860ac8ee5:  ff e0                    jmpq     *%rax
0x7f7860ac8ee7:  48 8d 05 95 fe ff ff     leaq     -0x16b(%rip), %rax
0x7f7860ac8eee:  e9 25 71 53 ff           jmp      0x7f7860000018
  -- tb slow paths + alignment
0x7f7860ac8ef3:  8b f3                    movl     %ebx, %esi
0x7f7860ac8ef5:  48 8b fd                 movq     %rbp, %rdi
0x7f7860ac8ef8:  ba 22 00 00 00           movl     $0x22, %edx
0x7f7860ac8efd:  48 8d 0d 92 ff ff ff     leaq     -0x6e(%rip), %rcx
0x7f7860ac8f04:  ff 15 36 00 00 00        callq    *0x36(%rip)
0x7f7860ac8f0a:  44 8b e0                 movl     %eax, %r12d
0x7f7860ac8f0d:  e9 84 ff ff ff           jmp      0x7f7860ac8e96
0x7f7860ac8f12:  8b f3                    movl     %ebx, %esi
0x7f7860ac8f14:  48 8b fd                 movq     %rbp, %rdi
0x7f7860ac8f17:  ba 22 00 00 00           movl     $0x22, %edx
0x7f7860ac8f1c:  48 8d 0d a8 ff ff ff     leaq     -0x58(%rip), %rcx
0x7f7860ac8f23:  ff 15 17 00 00 00        callq    *0x17(%rip)
0x7f7860ac8f29:  44 8b e0                 movl     %eax, %r12d
0x7f7860ac8f2c:  e9 9a ff ff ff           jmp      0x7f7860ac8ecb
0x7f7860ac8f31:  90                       nop      
0x7f7860ac8f32:  90                       nop      
0x7f7860ac8f33:  90                       nop      
0x7f7860ac8f34:  90                       nop      
0x7f7860ac8f35:  90                       nop      
0x7f7860ac8f36:  90                       nop      
0x7f7860ac8f37:  90                       nop      
  data: [size=16]
0x7f7860ac8f38:  .quad  0x0000557106c0fae0
0x7f7860ac8f40:  .quad  0x0000557106c21270

OUT: [size=512]
  -- guest addr 0x00000000000003c0 + tb prologue
0x7f7860ac9040:  8b 5d f0                 movl     -0x10(%rbp), %ebx
0x7f7860ac9043:  85 db                    testl    %ebx, %ebx
0x7f7860ac9045:  0f 8c 35 01 00 00        jl       0x7f7860ac9180
0x7f7860ac904b:  c7 85 20 db ff ff 00 00  movl     $0, -0x24e0(%rbp)
0x7f7860ac9053:  00 00
0x7f7860ac9055:  8b 5d 10                 movl     0x10(%rbp), %ebx
0x7f7860ac9058:  8b fb                    movl     %ebx, %edi
0x7f7860ac905a:  c1 ef 07                 shrl     $7, %edi
0x7f7860ac905d:  23 bd 10 ff ff ff        andl     -0xf0(%rbp), %edi
0x7f7860ac9063:  48 03 bd 18 ff ff ff     addq     -0xe8(%rbp), %rdi
0x7f7860ac906a:  8d 73 03                 leal     3(%rbx), %esi
0x7f7860ac906d:  81 e6 00 f0 ff ff        andl     $0xfffff000, %esi
0x7f7860ac9073:  3b 37                    cmpl     (%rdi), %esi
0x7f7860ac9075:  0f 85 11 01 00 00        jne      0x7f7860ac918c
0x7f7860ac907b:  48 8b 7f 18              movq     0x18(%rdi), %rdi
0x7f7860ac907f:  44 8b 24 3b              movl     (%rbx, %rdi), %r12d
0x7f7860ac9083:  83 c3 04                 addl     $4, %ebx
0x7f7860ac9086:  89 5d 10                 movl     %ebx, 0x10(%rbp)
0x7f7860ac9089:  44 89 65 00              movl     %r12d, (%rbp)
  -- guest addr 0x00000000000003c1
0x7f7860ac908d:  8b fb                    movl     %ebx, %edi
0x7f7860ac908f:  c1 ef 07                 shrl     $7, %edi
0x7f7860ac9092:  23 bd 10 ff ff ff        andl     -0xf0(%rbp), %edi
0x7f7860ac9098:  48 03 bd 18 ff ff ff     addq     -0xe8(%rbp), %rdi
0x7f7860ac909f:  8d 73 03                 leal     3(%rbx), %esi
0x7f7860ac90a2:  81 e6 00 f0 ff ff        andl     $0xfffff000, %esi
0x7f7860ac90a8:  3b 37                    cmpl     (%rdi), %esi
0x7f7860ac90aa:  0f 85 fb 00 00 00        jne      0x7f7860ac91ab
0x7f7860ac90b0:  48 8b 7f 18              movq     0x18(%rdi), %rdi
0x7f7860ac90b4:  44 8b 24 3b              movl     (%rbx, %rdi), %r12d
0x7f7860ac90b8:  83 c3 04                 addl     $4, %ebx
0x7f7860ac90bb:  89 5d 10                 movl     %ebx, 0x10(%rbp)
0x7f7860ac90be:  44 89 65 08              movl     %r12d, 8(%rbp)
  -- guest addr 0x00000000000003c2
0x7f7860ac90c2:  83 eb 04                 subl     $4, %ebx
0x7f7860ac90c5:  41 bc 8a 20 10 00        movl     $0x10208a, %r12d
0x7f7860ac90cb:  8b fb                    movl     %ebx, %edi
0x7f7860ac90cd:  c1 ef 07                 shrl     $7, %edi
0x7f7860ac90d0:  23 bd 10 ff ff ff        andl     -0xf0(%rbp), %edi
0x7f7860ac90d6:  48 03 bd 18 ff ff ff     addq     -0xe8(%rbp), %rdi
0x7f7860ac90dd:  8d 73 03                 leal     3(%rbx), %esi
0x7f7860ac90e0:  81 e6 00 f0 ff ff        andl     $0xfffff000, %esi
0x7f7860ac90e6:  3b 77 08                 cmpl     8(%rdi), %esi
0x7f7860ac90e9:  0f 85 db 00 00 00        jne      0x7f7860ac91ca
0x7f7860ac90ef:  48 8b 7f 18              movq     0x18(%rdi), %rdi
0x7f7860ac90f3:  44 89 24 3b              movl     %r12d, (%rbx, %rdi)
0x7f7860ac90f7:  89 5d 10                 movl     %ebx, 0x10(%rbp)
  -- guest addr 0x00000000000003c7
0x7f7860ac90fa:  83 eb 04                 subl     $4, %ebx
0x7f7860ac90fd:  45 33 e4                 xorl     %r12d, %r12d
0x7f7860ac9100:  8b fb                    movl     %ebx, %edi
0x7f7860ac9102:  c1 ef 07                 shrl     $7, %edi
0x7f7860ac9105:  23 bd 10 ff ff ff        andl     -0xf0(%rbp), %edi
0x7f7860ac910b:  48 03 bd 18 ff ff ff     addq     -0xe8(%rbp), %rdi
0x7f7860ac9112:  8d 73 03                 leal     3(%rbx), %esi
0x7f7860ac9115:  81 e6 00 f0 ff ff        andl     $0xfffff000, %esi
0x7f7860ac911b:  3b 77 08                 cmpl     8(%rdi), %esi
0x7f7860ac911e:  0f 85 c5 00 00 00        jne      0x7f7860ac91e9
0x7f7860ac9124:  48 8b 7f 18              movq     0x18(%rdi), %rdi
0x7f7860ac9128:  44 89 24 3b              movl     %r12d, (%rbx, %rdi)
0x7f7860ac912c:  89 5d 10                 movl     %ebx, 0x10(%rbp)
  -- guest addr 0x00000000000003c9
0x7f7860ac912f:  44 8b 65 20              movl     0x20(%rbp), %r12d
0x7f7860ac9133:  45 8d 6c 24 0e           leal     0xe(%r12), %r13d
0x7f7860ac9138:  83 eb 04                 subl     $4, %ebx
0x7f7860ac913b:  8b fb                    movl     %ebx, %edi
0x7f7860ac913d:  c1 ef 07                 shrl     $7, %edi
0x7f7860ac9140:  23 bd 10 ff ff ff        andl     -0xf0(%rbp), %edi
0x7f7860ac9146:  48 03 bd 18 ff ff ff     addq     -0xe8(%rbp), %rdi
0x7f7860ac914d:  8d 73 03                 leal     3(%rbx), %esi
0x7f7860ac9150:  81 e6 00 f0 ff ff        andl     $0xfffff000, %esi
0x7f7860ac9156:  3b 77 08                 cmpl     8(%rdi), %esi
0x7f7860ac9159:  0f 85 a9 00 00 00        jne      0x7f7860ac9208
0x7f7860ac915f:  48 8b 7f 18              movq     0x18(%rdi), %rdi
0x7f7860ac9163:  44 89 2c 3b              movl     %r13d, (%rbx, %rdi)
0x7f7860ac9167:  89 5d 10                 movl     %ebx, 0x10(%rbp)
0x7f7860ac916a:  41 8d 9c 24 80 11 00 00  leal     0x1180(%r12), %ebx
0x7f7860ac9172:  89 5d 20                 movl     %ebx, 0x20(%rbp)
0x7f7860ac9175:  48 8b fd                 movq     %rbp, %rdi
0x7f7860ac9178:  ff 15 aa 00 00 00        callq    *0xaa(%rip)
0x7f7860ac917e:  ff e0                    jmpq     *%rax
0x7f7860ac9180:  48 8d 05 fc fd ff ff     leaq     -0x204(%rip), %rax
0x7f7860ac9187:  e9 8c 6e 53 ff           jmp      0x7f7860000018
  -- tb slow paths + alignment
0x7f7860ac918c:  8b f3                    movl     %ebx, %esi
0x7f7860ac918e:  48 8b fd                 movq     %rbp, %rdi
0x7f7860ac9191:  ba 22 00 00 00           movl     $0x22, %edx
0x7f7860ac9196:  48 8d 0d e6 fe ff ff     leaq     -0x11a(%rip), %rcx
0x7f7860ac919d:  ff 15 8d 00 00 00        callq    *0x8d(%rip)
0x7f7860ac91a3:  44 8b e0                 movl     %eax, %r12d
0x7f7860ac91a6:  e9 d8 fe ff ff           jmp      0x7f7860ac9083
0x7f7860ac91ab:  8b f3                    movl     %ebx, %esi
0x7f7860ac91ad:  48 8b fd                 movq     %rbp, %rdi
0x7f7860ac91b0:  ba 22 00 00 00           movl     $0x22, %edx
0x7f7860ac91b5:  48 8d 0d fc fe ff ff     leaq     -0x104(%rip), %rcx
0x7f7860ac91bc:  ff 15 6e 00 00 00        callq    *0x6e(%rip)
0x7f7860ac91c2:  44 8b e0                 movl     %eax, %r12d
0x7f7860ac91c5:  e9 ee fe ff ff           jmp      0x7f7860ac90b8
0x7f7860ac91ca:  8b f3                    movl     %ebx, %esi
0x7f7860ac91cc:  41 8b d4                 movl     %r12d, %edx
0x7f7860ac91cf:  48 8b fd                 movq     %rbp, %rdi
0x7f7860ac91d2:  b9 22 00 00 00           movl     $0x22, %ecx
0x7f7860ac91d7:  4c 8d 05 19 ff ff ff     leaq     -0xe7(%rip), %r8
0x7f7860ac91de:  ff 15 54 00 00 00        callq    *0x54(%rip)
0x7f7860ac91e4:  e9 0e ff ff ff           jmp      0x7f7860ac90f7
0x7f7860ac91e9:  8b f3                    movl     %ebx, %esi
0x7f7860ac91eb:  41 8b d4                 movl     %r12d, %edx
0x7f7860ac91ee:  48 8b fd                 movq     %rbp, %rdi
0x7f7860ac91f1:  b9 22 00 00 00           movl     $0x22, %ecx
0x7f7860ac91f6:  4c 8d 05 2f ff ff ff     leaq     -0xd1(%rip), %r8
0x7f7860ac91fd:  ff 15 35 00 00 00        callq    *0x35(%rip)
0x7f7860ac9203:  e9 24 ff ff ff           jmp      0x7f7860ac912c
0x7f7860ac9208:  8b f3                    movl     %ebx, %esi
0x7f7860ac920a:  41 8b d5                 movl     %r13d, %edx
0x7f7860ac920d:  48 8b fd                 movq     %rbp, %rdi
0x7f7860ac9210:  b9 22 00 00 00           movl     $0x22, %ecx
0x7f7860ac9215:  4c 8d 05 4b ff ff ff     leaq     -0xb5(%rip), %r8
0x7f7860ac921c:  ff 15 16 00 00 00        callq    *0x16(%rip)
0x7f7860ac9222:  e9 40 ff ff ff           jmp      0x7f7860ac9167
0x7f7860ac9227:  90                       nop      
  data: [size=24]
0x7f7860ac9228:  .quad  0x0000557106c0fae0
0x7f7860ac9230:  .quad  0x0000557106c21270
0x7f7860ac9238:  .quad  0x0000557106c21520

OUT: [size=168]
  -- guest addr 0x00000000000003ce + tb prologue
0x7f7860ac9340:  8b 5d f0                 movl     -0x10(%rbp), %ebx
0x7f7860ac9343:  85 db                    testl    %ebx, %ebx
0x7f7860ac9345:  0f 8c 69 00 00 00        jl       0x7f7860ac93b4
0x7f7860ac934b:  c7 85 20 db ff ff 00 00  movl     $0, -0x24e0(%rbp)
0x7f7860ac9353:  00 00
0x7f7860ac9355:  8b 5d 20                 movl     0x20(%rbp), %ebx
0x7f7860ac9358:  44 8d 63 05              leal     5(%rbx), %r12d
0x7f7860ac935c:  44 8b 6d 10              movl     0x10(%rbp), %r13d
0x7f7860ac9360:  41 83 ed 04              subl     $4, %r13d
0x7f7860ac9364:  41 8b fd                 movl     %r13d, %edi
0x7f7860ac9367:  c1 ef 07                 shrl     $7, %edi
0x7f7860ac936a:  23 bd 10 ff ff ff        andl     -0xf0(%rbp), %edi
0x7f7860ac9370:  48 03 bd 18 ff ff ff     addq     -0xe8(%rbp), %rdi
0x7f7860ac9377:  41 8d 75 03              leal     3(%r13), %esi
0x7f7860ac937b:  81 e6 00 f0 ff ff        andl     $0xfffff000, %esi
0x7f7860ac9381:  3b 77 08                 cmpl     8(%rdi), %esi
0x7f7860ac9384:  0f 85 36 00 00 00        jne      0x7f7860ac93c0
0x7f7860ac938a:  48 8b 7f 18              movq     0x18(%rdi), %rdi
0x7f7860ac938e:  45 89 64 3d 00           movl     %r12d, (%r13, %rdi)
0x7f7860ac9393:  44 89 6d 10              movl     %r13d, 0x10(%rbp)
0x7f7860ac9397:  81 c3 42 04 00 00        addl     $0x442, %ebx
0x7f7860ac939d:  89 5d 20                 movl     %ebx, 0x20(%rbp)
0x7f7860ac93a0:  66 66 90                 nop      
0x7f7860ac93a3:  e9 00 00 00 00           jmp      0x7f7860ac93a8
0x7f7860ac93a8:  48 8d 05 d1 fe ff ff     leaq     -0x12f(%rip), %rax
0x7f7860ac93af:  e9 64 6c 53 ff           jmp      0x7f7860000018
0x7f7860ac93b4:  48 8d 05 c8 fe ff ff     leaq     -0x138(%rip), %rax
0x7f7860ac93bb:  e9 58 6c 53 ff           jmp      0x7f7860000018
  -- tb slow paths + alignment
0x7f7860ac93c0:  41 8b f5                 movl     %r13d, %esi
0x7f7860ac93c3:  41 8b d4                 movl     %r12d, %edx
0x7f7860ac93c6:  48 8b fd                 movq     %rbp, %rdi
0x7f7860ac93c9:  b9 22 00 00 00           movl     $0x22, %ecx
0x7f7860ac93ce:  4c 8d 05 be ff ff ff     leaq     -0x42(%rip), %r8
0x7f7860ac93d5:  ff 15 05 00 00 00        callq    *5(%rip)
0x7f7860ac93db:  e9 b3 ff ff ff           jmp      0x7f7860ac9393
  data: [size=8]
0x7f7860ac93e0:  .quad  0x0000557106c21520

OUT: [size=528]
  -- guest addr 0x0000000000000810 + tb prologue
0x7f7860ac94c0:  8b 5d f0                 movl     -0x10(%rbp), %ebx
0x7f7860ac94c3:  85 db                    testl    %ebx, %ebx
0x7f7860ac94c5:  0f 8c 55 01 00 00        jl       0x7f7860ac9620
0x7f7860ac94cb:  c7 85 20 db ff ff 00 00  movl     $0, -0x24e0(%rbp)
0x7f7860ac94d3:  00 00
0x7f7860ac94d5:  8b 5d 10                 movl     0x10(%rbp), %ebx
0x7f7860ac94d8:  83 eb 04                 subl     $4, %ebx
0x7f7860ac94db:  44 8b 65 14              movl     0x14(%rbp), %r12d
0x7f7860ac94df:  8b fb                    movl     %ebx, %edi
0x7f7860ac94e1:  c1 ef 07                 shrl     $7, %edi
0x7f7860ac94e4:  23 bd 10 ff ff ff        andl     -0xf0(%rbp), %edi
0x7f7860ac94ea:  48 03 bd 18 ff ff ff     addq     -0xe8(%rbp), %rdi
0x7f7860ac94f1:  8d 73 03                 leal     3(%rbx), %esi
0x7f7860ac94f4:  81 e6 00 f0 ff ff        andl     $0xfffff000, %esi
0x7f7860ac94fa:  3b 77 08                 cmpl     8(%rdi), %esi
0x7f7860ac94fd:  0f 85 29 01 00 00        jne      0x7f7860ac962c
0x7f7860ac9503:  48 8b 7f 18              movq     0x18(%rdi), %rdi
0x7f7860ac9507:  44 89 24 3b              movl     %r12d, (%rbx, %rdi)
0x7f7860ac950b:  89 5d 10                 movl     %ebx, 0x10(%rbp)
  -- guest addr 0x0000000000000811
0x7f7860ac950e:  89 5d 14                 movl     %ebx, 0x14(%rbp)
  -- guest addr 0x0000000000000813
0x7f7860ac9511:  83 eb 04                 subl     $4, %ebx
0x7f7860ac9514:  44 8b 65 0c              movl     0xc(%rbp), %r12d
0x7f7860ac9518:  8b fb                    movl     %ebx, %edi
0x7f7860ac951a:  c1 ef 07                 shrl     $7, %edi
0x7f7860ac951d:  23 bd 10 ff ff ff        andl     -0xf0(%rbp), %edi
0x7f7860ac9523:  48 03 bd 18 ff ff ff     addq     -0xe8(%rbp), %rdi
0x7f7860ac952a:  8d 73 03                 leal     3(%rbx), %esi
0x7f7860ac952d:  81 e6 00 f0 ff ff        andl     $0xfffff000, %esi
0x7f7860ac9533:  3b 77 08                 cmpl     8(%rdi), %esi
0x7f7860ac9536:  0f 85 0f 01 00 00        jne      0x7f7860ac964b
0x7f7860ac953c:  48 8b 7f 18              movq     0x18(%rdi), %rdi
0x7f7860ac9540:  44 89 24 3b              movl     %r12d, (%rbx, %rdi)
  -- guest addr 0x0000000000000814
0x7f7860ac9544:  83 eb 0c                 subl     $0xc, %ebx
0x7f7860ac9547:  89 5d 10                 movl     %ebx, 0x10(%rbp)
0x7f7860ac954a:  c7 45 2c 0c 00 00 00     movl     $0xc, 0x2c(%rbp)
0x7f7860ac9551:  89 5d 28                 movl     %ebx, 0x28(%rbp)
  -- guest addr 0x0000000000000817
0x7f7860ac9554:  83 eb 04                 subl     $4, %ebx
0x7f7860ac9557:  41 bc 01 00 00 00        movl     $1, %r12d
0x7f7860ac955d:  8b fb                    movl     %ebx, %edi
0x7f7860ac955f:  c1 ef 07                 shrl     $7, %edi
0x7f7860ac9562:  23 bd 10 ff ff ff        andl     -0xf0(%rbp), %edi
0x7f7860ac9568:  48 03 bd 18 ff ff ff     addq     -0xe8(%rbp), %rdi
0x7f7860ac956f:  8d 73 03                 leal     3(%rbx), %esi
0x7f7860ac9572:  81 e6 00 f0 ff ff        andl     $0xfffff000, %esi
0x7f7860ac9578:  3b 77 08                 cmpl     8(%rdi), %esi
0x7f7860ac957b:  0f 85 e9 00 00 00        jne      0x7f7860ac966a
0x7f7860ac9581:  48 8b 7f 18              movq     0x18(%rdi), %rdi
0x7f7860ac9585:  44 89 24 3b              movl     %r12d, (%rbx, %rdi)
0x7f7860ac9589:  89 5d 10                 movl     %ebx, 0x10(%rbp)
  -- guest addr 0x0000000000000819
0x7f7860ac958c:  83 eb 04                 subl     $4, %ebx
0x7f7860ac958f:  41 bc 00 10 00 00        movl     $0x1000, %r12d
0x7f7860ac9595:  8b fb                    movl     %ebx, %edi
0x7f7860ac9597:  c1 ef 07                 shrl     $7, %edi
0x7f7860ac959a:  23 bd 10 ff ff ff        andl     -0xf0(%rbp), %edi
0x7f7860ac95a0:  48 03 bd 18 ff ff ff     addq     -0xe8(%rbp), %rdi
0x7f7860ac95a7:  8d 73 03                 leal     3(%rbx), %esi
0x7f7860ac95aa:  81 e6 00 f0 ff ff        andl     $0xfffff000, %esi
0x7f7860ac95b0:  3b 77 08                 cmpl     8(%rdi), %esi
0x7f7860ac95b3:  0f 85 d0 00 00 00        jne      0x7f7860ac9689
0x7f7860ac95b9:  48 8b 7f 18              movq     0x18(%rdi), %rdi
0x7f7860ac95bd:  44 89 24 3b              movl     %r12d, (%rbx, %rdi)
0x7f7860ac95c1:  89 5d 10                 movl     %ebx, 0x10(%rbp)
  -- guest addr 0x000000000000081e
0x7f7860ac95c4:  44 8b 65 20              movl     0x20(%rbp), %r12d
0x7f7860ac95c8:  45 8d 6c 24 13           leal     0x13(%r12), %r13d
0x7f7860ac95cd:  83 eb 04                 subl     $4, %ebx
0x7f7860ac95d0:  8b fb                    movl     %ebx, %edi
0x7f7860ac95d2:  c1 ef 07                 shrl     $7, %edi
0x7f7860ac95d5:  23 bd 10 ff ff ff        andl     -0xf0(%rbp), %edi
0x7f7860ac95db:  48 03 bd 18 ff ff ff     addq     -0xe8(%rbp), %rdi
0x7f7860ac95e2:  8d 73 03                 leal     3(%rbx), %esi
0x7f7860ac95e5:  81 e6 00 f0 ff ff        andl     $0xfffff000, %esi
0x7f7860ac95eb:  3b 77 08                 cmpl     8(%rdi), %esi
0x7f7860ac95ee:  0f 85 b4 00 00 00        jne      0x7f7860ac96a8
0x7f7860ac95f4:  48 8b 7f 18              movq     0x18(%rdi), %rdi
0x7f7860ac95f8:  44 89 2c 3b              movl     %r13d, (%rbx, %rdi)
0x7f7860ac95fc:  89 5d 10                 movl     %ebx, 0x10(%rbp)
0x7f7860ac95ff:  c7 45 34 10 00 00 00     movl     $0x10, 0x34(%rbp)
0x7f7860ac9606:  41 8d 5c 24 80           leal     -0x80(%r12), %ebx
0x7f7860ac960b:  89 5d 20                 movl     %ebx, 0x20(%rbp)
0x7f7860ac960e:  90                       nop      
0x7f7860ac960f:  e9 00 00 00 00           jmp      0x7f7860ac9614
0x7f7860ac9614:  48 8d 05 e5 fd ff ff     leaq     -0x21b(%rip), %rax
0x7f7860ac961b:  e9 f8 69 53 ff           jmp      0x7f7860000018
0x7f7860ac9620:  48 8d 05 dc fd ff ff     leaq     -0x224(%rip), %rax
0x7f7860ac9627:  e9 ec 69 53 ff           jmp      0x7f7860000018
  -- tb slow paths + alignment
0x7f7860ac962c:  8b f3                    movl     %ebx, %esi
0x7f7860ac962e:  41 8b d4                 movl     %r12d, %edx
0x7f7860ac9631:  48 8b fd                 movq     %rbp, %rdi
0x7f7860ac9634:  b9 22 00 00 00           movl     $0x22, %ecx
0x7f7860ac9639:  4c 8d 05 cb fe ff ff     leaq     -0x135(%rip), %r8
0x7f7860ac9640:  ff 15 82 00 00 00        callq    *0x82(%rip)
0x7f7860ac9646:  e9 c0 fe ff ff           jmp      0x7f7860ac950b
0x7f7860ac964b:  8b f3                    movl     %ebx, %esi
0x7f7860ac964d:  41 8b d4                 movl     %r12d, %edx
0x7f7860ac9650:  48 8b fd                 movq     %rbp, %rdi
0x7f7860ac9653:  b9 22 00 00 00           movl     $0x22, %ecx
0x7f7860ac9658:  4c 8d 05 e5 fe ff ff     leaq     -0x11b(%rip), %r8
0x7f7860ac965f:  ff 15 63 00 00 00        callq    *0x63(%rip)
0x7f7860ac9665:  e9 da fe ff ff           jmp      0x7f7860ac9544
0x7f7860ac966a:  8b f3                    movl     %ebx, %esi
0x7f7860ac966c:  41 8b d4                 movl     %r12d, %edx
0x7f7860ac966f:  48 8b fd                 movq     %rbp, %rdi
0x7f7860ac9672:  b9 22 00 00 00           movl     $0x22, %ecx
0x7f7860ac9677:  4c 8d 05 0b ff ff ff     leaq     -0xf5(%rip), %r8
0x7f7860ac967e:  ff 15 44 00 00 00        callq    *0x44(%rip)
0x7f7860ac9684:  e9 00 ff ff ff           jmp      0x7f7860ac9589
0x7f7860ac9689:  8b f3                    movl     %ebx, %esi
0x7f7860ac968b:  41 8b d4                 movl     %r12d, %edx
0x7f7860ac968e:  48 8b fd                 movq     %rbp, %rdi
0x7f7860ac9691:  b9 22 00 00 00           movl     $0x22, %ecx
0x7f7860ac9696:  4c 8d 05 24 ff ff ff     leaq     -0xdc(%rip), %r8
0x7f7860ac969d:  ff 15 25 00 00 00        callq    *0x25(%rip)
0x7f7860ac96a3:  e9 19 ff ff ff           jmp      0x7f7860ac95c1
0x7f7860ac96a8:  8b f3                    movl     %ebx, %esi
0x7f7860ac96aa:  41 8b d5                 movl     %r13d, %edx
0x7f7860ac96ad:  48 8b fd                 movq     %rbp, %rdi
0x7f7860ac96b0:  b9 22 00 00 00           movl     $0x22, %ecx
0x7f7860ac96b5:  4c 8d 05 40 ff ff ff     leaq     -0xc0(%rip), %r8
0x7f7860ac96bc:  ff 15 06 00 00 00        callq    *6(%rip)
0x7f7860ac96c2:  e9 35 ff ff ff           jmp      0x7f7860ac95fc
0x7f7860ac96c7:  90                       nop      
  data: [size=8]
0x7f7860ac96c8:  .quad  0x0000557106c21520

OUT: [size=752]
  -- guest addr 0x0000000000000790 + tb prologue
0x7f7860ac97c0:  8b 5d f0                 movl     -0x10(%rbp), %ebx
0x7f7860ac97c3:  85 db                    testl    %ebx, %ebx
0x7f7860ac97c5:  0f 8c da 01 00 00        jl       0x7f7860ac99a5
0x7f7860ac97cb:  c7 85 20 db ff ff 00 00  movl     $0, -0x24e0(%rbp)
0x7f7860ac97d3:  00 00
0x7f7860ac97d5:  8b 5d 10                 movl     0x10(%rbp), %ebx
0x7f7860ac97d8:  83 eb 04                 subl     $4, %ebx
0x7f7860ac97db:  44 8b 65 14              movl     0x14(%rbp), %r12d
0x7f7860ac97df:  8b fb                    movl     %ebx, %edi
0x7f7860ac97e1:  c1 ef 07                 shrl     $7, %edi
0x7f7860ac97e4:  23 bd 10 ff ff ff        andl     -0xf0(%rbp), %edi
0x7f7860ac97ea:  48 03 bd 18 ff ff ff     addq     -0xe8(%rbp), %rdi
0x7f7860ac97f1:  8d 73 03                 leal     3(%rbx), %esi
0x7f7860ac97f4:  81 e6 00 f0 ff ff        andl     $0xfffff000, %esi
0x7f7860ac97fa:  3b 77 08                 cmpl     8(%rdi), %esi
0x7f7860ac97fd:  0f 85 ae 01 00 00        jne      0x7f7860ac99b1
0x7f7860ac9803:  48 8b 7f 18              movq     0x18(%rdi), %rdi
0x7f7860ac9807:  44 89 24 3b              movl     %r12d, (%rbx, %rdi)
0x7f7860ac980b:  89 5d 10                 movl     %ebx, 0x10(%rbp)
  -- guest addr 0x0000000000000791
0x7f7860ac980e:  44 8b e3                 movl     %ebx, %r12d
0x7f7860ac9811:  44 89 65 14              movl     %r12d, 0x14(%rbp)
  -- guest addr 0x0000000000000793
0x7f7860ac9815:  45 8d 6c 24 08           leal     8(%r12), %r13d
0x7f7860ac981a:  41 8b fd                 movl     %r13d, %edi
0x7f7860ac981d:  c1 ef 07                 shrl     $7, %edi
0x7f7860ac9820:  23 bd 10 ff ff ff        andl     -0xf0(%rbp), %edi
0x7f7860ac9826:  48 03 bd 18 ff ff ff     addq     -0xe8(%rbp), %rdi
0x7f7860ac982d:  41 8d 75 03              leal     3(%r13), %esi
0x7f7860ac9831:  81 e6 00 f0 ff ff        andl     $0xfffff000, %esi
0x7f7860ac9837:  3b 37                    cmpl     (%rdi), %esi
0x7f7860ac9839:  0f 85 91 01 00 00        jne      0x7f7860ac99d0
0x7f7860ac983f:  48 8b 7f 18              movq     0x18(%rdi), %rdi
0x7f7860ac9843:  45 8b 6c 3d 00           movl     (%r13, %rdi), %r13d
0x7f7860ac9848:  44 89 6d 08              movl     %r13d, 8(%rbp)
  -- guest addr 0x0000000000000796
0x7f7860ac984c:  45 8d b5 ff ff 3f 00     leal     0x3fffff(%r13), %r14d
  -- guest addr 0x000000000000079c
0x7f7860ac9853:  41 81 e6 00 00 c0 ff     andl     $0xffc00000, %r14d
0x7f7860ac985a:  44 89 75 00              movl     %r14d, (%rbp)
0x7f7860ac985e:  44 89 75 28              movl     %r14d, 0x28(%rbp)
  -- guest addr 0x00000000000007a1
0x7f7860ac9862:  41 83 c4 0c              addl     $0xc, %r12d
0x7f7860ac9866:  41 8b fc                 movl     %r12d, %edi
0x7f7860ac9869:  c1 ef 07                 shrl     $7, %edi
0x7f7860ac986c:  23 bd 10 ff ff ff        andl     -0xf0(%rbp), %edi
0x7f7860ac9872:  48 03 bd 18 ff ff ff     addq     -0xe8(%rbp), %rdi
0x7f7860ac9879:  41 8b f4                 movl     %r12d, %esi
0x7f7860ac987c:  81 e6 00 f0 ff ff        andl     $0xfffff000, %esi
0x7f7860ac9882:  3b 37                    cmpl     (%rdi), %esi
0x7f7860ac9884:  0f 85 66 01 00 00        jne      0x7f7860ac99f0
0x7f7860ac988a:  48 8b 7f 18              movq     0x18(%rdi), %rdi
0x7f7860ac988e:  45 0f b6 24 3c           movzbl   (%r12, %rdi), %r12d
0x7f7860ac9893:  c7 45 2c 00 00 00 00     movl     $0, 0x2c(%rbp)
0x7f7860ac989a:  44 89 65 28              movl     %r12d, 0x28(%rbp)
  -- guest addr 0x00000000000007a5
0x7f7860ac989e:  8b fb                    movl     %ebx, %edi
0x7f7860ac98a0:  c1 ef 07                 shrl     $7, %edi
0x7f7860ac98a3:  23 bd 10 ff ff ff        andl     -0xf0(%rbp), %edi
0x7f7860ac98a9:  48 03 bd 18 ff ff ff     addq     -0xe8(%rbp), %rdi
0x7f7860ac98b0:  8d 73 03                 leal     3(%rbx), %esi
0x7f7860ac98b3:  81 e6 00 f0 ff ff        andl     $0xfffff000, %esi
0x7f7860ac98b9:  3b 37                    cmpl     (%rdi), %esi
0x7f7860ac98bb:  0f 85 4f 01 00 00        jne      0x7f7860ac9a10
0x7f7860ac98c1:  48 8b 7f 18              movq     0x18(%rdi), %rdi
0x7f7860ac98c5:  44 8b 3c 3b              movl     (%rbx, %rdi), %r15d
0x7f7860ac98c9:  83 c3 04                 addl     $4, %ebx
0x7f7860ac98cc:  89 5d 10                 movl     %ebx, 0x10(%rbp)
0x7f7860ac98cf:  44 89 7d 14              movl     %r15d, 0x14(%rbp)
  -- guest addr 0x00000000000007a6
0x7f7860ac98d3:  45 85 e4                 testl    %r12d, %r12d
0x7f7860ac98d6:  45 0f 45 ee              cmovnel  %r14d, %r13d
0x7f7860ac98da:  44 89 6d 08              movl     %r13d, 8(%rbp)
  -- guest addr 0x00000000000007a9
0x7f7860ac98de:  41 bc 50 40 10 00        movl     $0x104050, %r12d
0x7f7860ac98e4:  41 8b fc                 movl     %r12d, %edi
0x7f7860ac98e7:  c1 ef 07                 shrl     $7, %edi
0x7f7860ac98ea:  23 bd 10 ff ff ff        andl     -0xf0(%rbp), %edi
0x7f7860ac98f0:  48 03 bd 18 ff ff ff     addq     -0xe8(%rbp), %rdi
0x7f7860ac98f7:  41 8d 74 24 03           leal     3(%r12), %esi
0x7f7860ac98fc:  81 e6 00 f0 ff ff        andl     $0xfffff000, %esi
0x7f7860ac9902:  3b 37                    cmpl     (%rdi), %esi
0x7f7860ac9904:  0f 85 25 01 00 00        jne      0x7f7860ac9a2f
0x7f7860ac990a:  48 8b 7f 18              movq     0x18(%rdi), %rdi
0x7f7860ac990e:  45 8b 34 3c              movl     (%r12, %rdi), %r14d
  -- guest addr 0x00000000000007ae
0x7f7860ac9912:  45 03 ee                 addl     %r14d, %r13d
0x7f7860ac9915:  44 89 6d 08              movl     %r13d, 8(%rbp)
  -- guest addr 0x00000000000007b0
0x7f7860ac9919:  41 81 c6 ff ff 3f 00     addl     $0x3fffff, %r14d
  -- guest addr 0x00000000000007b5
0x7f7860ac9920:  41 81 e6 00 00 c0 ff     andl     $0xffc00000, %r14d
0x7f7860ac9927:  44 89 75 00              movl     %r14d, (%rbp)
0x7f7860ac992b:  44 89 75 28              movl     %r14d, 0x28(%rbp)
  -- guest addr 0x00000000000007ba
0x7f7860ac992f:  41 8b fc                 movl     %r12d, %edi
0x7f7860ac9932:  c1 ef 07                 shrl     $7, %edi
0x7f7860ac9935:  23 bd 10 ff ff ff        andl     -0xf0(%rbp), %edi
0x7f7860ac993b:  48 03 bd 18 ff ff ff     addq     -0xe8(%rbp), %rdi
0x7f7860ac9942:  41 8d 74 24 03           leal     3(%r12), %esi
0x7f7860ac9947:  81 e6 00 f0 ff ff        andl     $0xfffff000, %esi
0x7f7860ac994d:  3b 77 08                 cmpl     8(%rdi), %esi
0x7f7860ac9950:  0f 85 f9 00 00 00        jne      0x7f7860ac9a4f
0x7f7860ac9956:  48 8b 7f 18              movq     0x18(%rdi), %rdi
0x7f7860ac995a:  45 89 2c 3c              movl     %r13d, (%r12, %rdi)
  -- guest addr 0x00000000000007c0
0x7f7860ac995e:  8b fb                    movl     %ebx, %edi
0x7f7860ac9960:  c1 ef 07                 shrl     $7, %edi
0x7f7860ac9963:  23 bd 10 ff ff ff        andl     -0xf0(%rbp), %edi
0x7f7860ac9969:  48 03 bd 18 ff ff ff     addq     -0xe8(%rbp), %rdi
0x7f7860ac9970:  8d 73 03                 leal     3(%rbx), %esi
0x7f7860ac9973:  81 e6 00 f0 ff ff        andl     $0xfffff000, %esi
0x7f7860ac9979:  3b 37                    cmpl     (%rdi), %esi
0x7f7860ac997b:  0f 85 ee 00 00 00        jne      0x7f7860ac9a6f
0x7f7860ac9981:  48 8b 7f 18              movq     0x18(%rdi), %rdi
0x7f7860ac9985:  44 8b 24 3b              movl     (%rbx, %rdi), %r12d
0x7f7860ac9989:  83 c3 04                 addl     $4, %ebx
0x7f7860ac998c:  89 5d 10                 movl     %ebx, 0x10(%rbp)
0x7f7860ac998f:  44 89 65 20              movl     %r12d, 0x20(%rbp)
0x7f7860ac9993:  c7 45 34 18 00 00 00     movl     $0x18, 0x34(%rbp)
0x7f7860ac999a:  48 8b fd                 movq     %rbp, %rdi
0x7f7860ac999d:  ff 15 ed 00 00 00        callq    *0xed(%rip)
0x7f7860ac99a3:  ff e0                    jmpq     *%rax
0x7f7860ac99a5:  48 8d 05 57 fd ff ff     leaq     -0x2a9(%rip), %rax
0x7f7860ac99ac:  e9 67 66 53 ff           jmp      0x7f7860000018
  -- tb slow paths + alignment
0x7f7860ac99b1:  8b f3                    movl     %ebx, %esi
0x7f7860ac99b3:  41 8b d4                 movl     %r12d, %edx
0x7f7860ac99b6:  48 8b fd                 movq     %rbp, %rdi
0x7f7860ac99b9:  b9 22 00 00 00           movl     $0x22, %ecx
0x7f7860ac99be:  4c 8d 05 46 fe ff ff     leaq     -0x1ba(%rip), %r8
0x7f7860ac99c5:  ff 15 dd 00 00 00        callq    *0xdd(%rip)
0x7f7860ac99cb:  e9 3b fe ff ff           jmp      0x7f7860ac980b
0x7f7860ac99d0:  41 8b f5                 movl     %r13d, %esi
0x7f7860ac99d3:  48 8b fd                 movq     %rbp, %rdi
0x7f7860ac99d6:  ba 22 00 00 00           movl     $0x22, %edx
0x7f7860ac99db:  48 8d 0d 66 fe ff ff     leaq     -0x19a(%rip), %rcx
0x7f7860ac99e2:  ff 15 b8 00 00 00        callq    *0xb8(%rip)
0x7f7860ac99e8:  44 8b e8                 movl     %eax, %r13d
0x7f7860ac99eb:  e9 58 fe ff ff           jmp      0x7f7860ac9848
0x7f7860ac99f0:  41 8b f4                 movl     %r12d, %esi
0x7f7860ac99f3:  48 8b fd                 movq     %rbp, %rdi
0x7f7860ac99f6:  ba 02 0e 00 00           movl     $0xe02, %edx
0x7f7860ac99fb:  48 8d 0d 91 fe ff ff     leaq     -0x16f(%rip), %rcx
0x7f7860ac9a02:  ff 15 90 00 00 00        callq    *0x90(%rip)
0x7f7860ac9a08:  44 8b e0                 movl     %eax, %r12d
0x7f7860ac9a0b:  e9 83 fe ff ff           jmp      0x7f7860ac9893
0x7f7860ac9a10:  8b f3                    movl     %ebx, %esi
0x7f7860ac9a12:  48 8b fd                 movq     %rbp, %rdi
0x7f7860ac9a15:  ba 22 00 00 00           movl     $0x22, %edx
0x7f7860ac9a1a:  48 8d 0d a8 fe ff ff     leaq     -0x158(%rip), %rcx
0x7f7860ac9a21:  ff 15 79 00 00 00        callq    *0x79(%rip)
0x7f7860ac9a27:  44 8b f8                 movl     %eax, %r15d
0x7f7860ac9a2a:  e9 9a fe ff ff           jmp      0x7f7860ac98c9
0x7f7860ac9a2f:  41 8b f4                 movl     %r12d, %esi
0x7f7860ac9a32:  48 8b fd                 movq     %rbp, %rdi
0x7f7860ac9a35:  ba 22 00 00 00           movl     $0x22, %edx
0x7f7860ac9a3a:  48 8d 0d d1 fe ff ff     leaq     -0x12f(%rip), %rcx
0x7f7860ac9a41:  ff 15 59 00 00 00        callq    *0x59(%rip)
0x7f7860ac9a47:  44 8b f0                 movl     %eax, %r14d
0x7f7860ac9a4a:  e9 c3 fe ff ff           jmp      0x7f7860ac9912
0x7f7860ac9a4f:  41 8b f4                 movl     %r12d, %esi
0x7f7860ac9a52:  41 8b d5                 movl     %r13d, %edx
0x7f7860ac9a55:  48 8b fd                 movq     %rbp, %rdi
0x7f7860ac9a58:  b9 22 00 00 00           movl     $0x22, %ecx
0x7f7860ac9a5d:  4c 8d 05 fa fe ff ff     leaq     -0x106(%rip), %r8
0x7f7860ac9a64:  ff 15 3e 00 00 00        callq    *0x3e(%rip)
0x7f7860ac9a6a:  e9 ef fe ff ff           jmp      0x7f7860ac995e
0x7f7860ac9a6f:  8b f3                    movl     %ebx, %esi
0x7f7860ac9a71:  48 8b fd                 movq     %rbp, %rdi
0x7f7860ac9a74:  ba 22 00 00 00           movl     $0x22, %edx
0x7f7860ac9a79:  48 8d 0d 09 ff ff ff     leaq     -0xf7(%rip), %rcx
0x7f7860ac9a80:  ff 15 1a 00 00 00        callq    *0x1a(%rip)
0x7f7860ac9a86:  44 8b e0                 movl     %eax, %r12d
0x7f7860ac9a89:  e9 fb fe ff ff           jmp      0x7f7860ac9989
0x7f7860ac9a8e:  90                       nop      
0x7f7860ac9a8f:  90                       nop      
  data: [size=32]
0x7f7860ac9a90:  .quad  0x0000557106c0fae0
0x7f7860ac9a98:  .quad  0x0000557106c211c0
0x7f7860ac9aa0:  .quad  0x0000557106c21270
0x7f7860ac9aa8:  .quad  0x0000557106c21520

OUT: [size=544]
  -- guest addr 0x0000000000000823 + tb prologue
0x7f7860ac9bc0:  8b 5d f0                 movl     -0x10(%rbp), %ebx
0x7f7860ac9bc3:  85 db                    testl    %ebx, %ebx
0x7f7860ac9bc5:  0f 8c 4d 01 00 00        jl       0x7f7860ac9d18
0x7f7860ac9bcb:  c7 85 20 db ff ff 00 00  movl     $0, -0x24e0(%rbp)
0x7f7860ac9bd3:  00 00
0x7f7860ac9bd5:  8b 5d 00                 movl     (%rbp), %ebx
0x7f7860ac9bd8:  89 5d 0c                 movl     %ebx, 0xc(%rbp)
  -- guest addr 0x0000000000000825
0x7f7860ac9bdb:  44 8b 65 10              movl     0x10(%rbp), %r12d
0x7f7860ac9bdf:  41 8b fc                 movl     %r12d, %edi
0x7f7860ac9be2:  c1 ef 07                 shrl     $7, %edi
0x7f7860ac9be5:  23 bd 10 ff ff ff        andl     -0xf0(%rbp), %edi
0x7f7860ac9beb:  48 03 bd 18 ff ff ff     addq     -0xe8(%rbp), %rdi
0x7f7860ac9bf2:  41 8d 74 24 03           leal     3(%r12), %esi
0x7f7860ac9bf7:  81 e6 00 f0 ff ff        andl     $0xfffff000, %esi
0x7f7860ac9bfd:  3b 37                    cmpl     (%rdi), %esi
0x7f7860ac9bff:  0f 85 1f 01 00 00        jne      0x7f7860ac9d24
0x7f7860ac9c05:  48 8b 7f 18              movq     0x18(%rdi), %rdi
0x7f7860ac9c09:  45 8b 2c 3c              movl     (%r12, %rdi), %r13d
0x7f7860ac9c0d:  41 83 c4 04              addl     $4, %r12d
0x7f7860ac9c11:  44 89 65 10              movl     %r12d, 0x10(%rbp)
0x7f7860ac9c15:  44 89 6d 00              movl     %r13d, (%rbp)
  -- guest addr 0x0000000000000826
0x7f7860ac9c19:  41 8b fc                 movl     %r12d, %edi
0x7f7860ac9c1c:  c1 ef 07                 shrl     $7, %edi
0x7f7860ac9c1f:  23 bd 10 ff ff ff        andl     -0xf0(%rbp), %edi
0x7f7860ac9c25:  48 03 bd 18 ff ff ff     addq     -0xe8(%rbp), %rdi
0x7f7860ac9c2c:  41 8d 74 24 03           leal     3(%r12), %esi
0x7f7860ac9c31:  81 e6 00 f0 ff ff        andl     $0xfffff000, %esi
0x7f7860ac9c37:  3b 37                    cmpl     (%rdi), %esi
0x7f7860ac9c39:  0f 85 05 01 00 00        jne      0x7f7860ac9d44
0x7f7860ac9c3f:  48 8b 7f 18              movq     0x18(%rdi), %rdi
0x7f7860ac9c43:  45 8b 2c 3c              movl     (%r12, %rdi), %r13d
0x7f7860ac9c47:  41 83 c4 04              addl     $4, %r12d
0x7f7860ac9c4b:  44 89 65 10              movl     %r12d, 0x10(%rbp)
0x7f7860ac9c4f:  44 89 6d 08              movl     %r13d, 8(%rbp)
  -- guest addr 0x0000000000000827
0x7f7860ac9c53:  41 83 ec 04              subl     $4, %r12d
0x7f7860ac9c57:  41 8b fc                 movl     %r12d, %edi
0x7f7860ac9c5a:  c1 ef 07                 shrl     $7, %edi
0x7f7860ac9c5d:  23 bd 10 ff ff ff        andl     -0xf0(%rbp), %edi
0x7f7860ac9c63:  48 03 bd 18 ff ff ff     addq     -0xe8(%rbp), %rdi
0x7f7860ac9c6a:  41 8d 74 24 03           leal     3(%r12), %esi
0x7f7860ac9c6f:  81 e6 00 f0 ff ff        andl     $0xfffff000, %esi
0x7f7860ac9c75:  3b 77 08                 cmpl     8(%rdi), %esi
0x7f7860ac9c78:  0f 85 e6 00 00 00        jne      0x7f7860ac9d64
0x7f7860ac9c7e:  48 8b 7f 18              movq     0x18(%rdi), %rdi
0x7f7860ac9c82:  41 89 1c 3c              movl     %ebx, (%r12, %rdi)
0x7f7860ac9c86:  44 89 65 10              movl     %r12d, 0x10(%rbp)
  -- guest addr 0x0000000000000828
0x7f7860ac9c8a:  41 83 ec 04              subl     $4, %r12d
0x7f7860ac9c8e:  bb 0c 21 10 00           movl     $0x10210c, %ebx
0x7f7860ac9c93:  41 8b fc                 movl     %r12d, %edi
0x7f7860ac9c96:  c1 ef 07                 shrl     $7, %edi
0x7f7860ac9c99:  23 bd 10 ff ff ff        andl     -0xf0(%rbp), %edi
0x7f7860ac9c9f:  48 03 bd 18 ff ff ff     addq     -0xe8(%rbp), %rdi
0x7f7860ac9ca6:  41 8d 74 24 03           leal     3(%r12), %esi
0x7f7860ac9cab:  81 e6 00 f0 ff ff        andl     $0xfffff000, %esi
0x7f7860ac9cb1:  3b 77 08                 cmpl     8(%rdi), %esi
0x7f7860ac9cb4:  0f 85 c9 00 00 00        jne      0x7f7860ac9d83
0x7f7860ac9cba:  48 8b 7f 18              movq     0x18(%rdi), %rdi
0x7f7860ac9cbe:  41 89 1c 3c              movl     %ebx, (%r12, %rdi)
0x7f7860ac9cc2:  44 89 65 10              movl     %r12d, 0x10(%rbp)
  -- guest addr 0x000000000000082d
0x7f7860ac9cc6:  8b 5d 20                 movl     0x20(%rbp), %ebx
0x7f7860ac9cc9:  44 8d 6b 0f              leal     0xf(%rbx), %r13d
0x7f7860ac9ccd:  41 83 ec 04              subl     $4, %r12d
0x7f7860ac9cd1:  41 8b fc                 movl     %r12d, %edi
0x7f7860ac9cd4:  c1 ef 07                 shrl     $7, %edi
0x7f7860ac9cd7:  23 bd 10 ff ff ff        andl     -0xf0(%rbp), %edi
0x7f7860ac9cdd:  48 03 bd 18 ff ff ff     addq     -0xe8(%rbp), %rdi
0x7f7860ac9ce4:  41 8d 74 24 03           leal     3(%r12), %esi
0x7f7860ac9ce9:  81 e6 00 f0 ff ff        andl     $0xfffff000, %esi
0x7f7860ac9cef:  3b 77 08                 cmpl     8(%rdi), %esi
0x7f7860ac9cf2:  0f 85 aa 00 00 00        jne      0x7f7860ac9da2
0x7f7860ac9cf8:  48 8b 7f 18              movq     0x18(%rdi), %rdi
0x7f7860ac9cfc:  45 89 2c 3c              movl     %r13d, (%r12, %rdi)
0x7f7860ac9d00:  44 89 65 10              movl     %r12d, 0x10(%rbp)
0x7f7860ac9d04:  81 c3 9d 0b 00 00        addl     $0xb9d, %ebx
0x7f7860ac9d0a:  89 5d 20                 movl     %ebx, 0x20(%rbp)
0x7f7860ac9d0d:  48 8b fd                 movq     %rbp, %rdi
0x7f7860ac9d10:  ff 15 b2 00 00 00        callq    *0xb2(%rip)
0x7f7860ac9d16:  ff e0                    jmpq     *%rax
0x7f7860ac9d18:  48 8d 05 e4 fd ff ff     leaq     -0x21c(%rip), %rax
0x7f7860ac9d1f:  e9 f4 62 53 ff           jmp      0x7f7860000018
  -- tb slow paths + alignment
0x7f7860ac9d24:  41 8b f4                 movl     %r12d, %esi
0x7f7860ac9d27:  48 8b fd                 movq     %rbp, %rdi
0x7f7860ac9d2a:  ba 22 00 00 00           movl     $0x22, %edx
0x7f7860ac9d2f:  48 8d 0d d7 fe ff ff     leaq     -0x129(%rip), %rcx
0x7f7860ac9d36:  ff 15 94 00 00 00        callq    *0x94(%rip)
0x7f7860ac9d3c:  44 8b e8                 movl     %eax, %r13d
0x7f7860ac9d3f:  e9 c9 fe ff ff           jmp      0x7f7860ac9c0d
0x7f7860ac9d44:  41 8b f4                 movl     %r12d, %esi
0x7f7860ac9d47:  48 8b fd                 movq     %rbp, %rdi
0x7f7860ac9d4a:  ba 22 00 00 00           movl     $0x22, %edx
0x7f7860ac9d4f:  48 8d 0d f1 fe ff ff     leaq     -0x10f(%rip), %rcx
0x7f7860ac9d56:  ff 15 74 00 00 00        callq    *0x74(%rip)
0x7f7860ac9d5c:  44 8b e8                 movl     %eax, %r13d
0x7f7860ac9d5f:  e9 e3 fe ff ff           jmp      0x7f7860ac9c47
0x7f7860ac9d64:  41 8b f4                 movl     %r12d, %esi
0x7f7860ac9d67:  8b d3                    movl     %ebx, %edx
0x7f7860ac9d69:  48 8b fd                 movq     %rbp, %rdi
0x7f7860ac9d6c:  b9 22 00 00 00           movl     $0x22, %ecx
0x7f7860ac9d71:  4c 8d 05 0e ff ff ff     leaq     -0xf2(%rip), %r8
0x7f7860ac9d78:  ff 15 5a 00 00 00        callq    *0x5a(%rip)
0x7f7860ac9d7e:  e9 03 ff ff ff           jmp      0x7f7860ac9c86
0x7f7860ac9d83:  41 8b f4                 movl     %r12d, %esi
0x7f7860ac9d86:  8b d3                    movl     %ebx, %edx
0x7f7860ac9d88:  48 8b fd                 movq     %rbp, %rdi
0x7f7860ac9d8b:  b9 22 00 00 00           movl     $0x22, %ecx
0x7f7860ac9d90:  4c 8d 05 2b ff ff ff     leaq     -0xd5(%rip), %r8
0x7f7860ac9d97:  ff 15 3b 00 00 00        callq    *0x3b(%rip)
0x7f7860ac9d9d:  e9 20 ff ff ff           jmp      0x7f7860ac9cc2
0x7f7860ac9da2:  41 8b f4                 movl     %r12d, %esi
0x7f7860ac9da5:  41 8b d5                 movl     %r13d, %edx
0x7f7860ac9da8:  48 8b fd                 movq     %rbp, %rdi
0x7f7860ac9dab:  b9 22 00 00 00           movl     $0x22, %ecx
0x7f7860ac9db0:  4c 8d 05 49 ff ff ff     leaq     -0xb7(%rip), %r8
0x7f7860ac9db7:  ff 15 1b 00 00 00        callq    *0x1b(%rip)
0x7f7860ac9dbd:  e9 3e ff ff ff           jmp      0x7f7860ac9d00
0x7f7860ac9dc2:  90                       nop      
0x7f7860ac9dc3:  90                       nop      
0x7f7860ac9dc4:  90                       nop      
0x7f7860ac9dc5:  90                       nop      
0x7f7860ac9dc6:  90                       nop      
0x7f7860ac9dc7:  90                       nop      
  data: [size=24]
0x7f7860ac9dc8:  .quad  0x0000557106c0fae0
0x7f7860ac9dd0:  .quad  0x0000557106c21270
0x7f7860ac9dd8:  .quad  0x0000557106c21520

OUT: [size=208]
  -- guest addr 0x0000000000000470 + tb prologue
0x7f7860ac9ec0:  8b 5d f0                 movl     -0x10(%rbp), %ebx
0x7f7860ac9ec3:  85 db                    testl    %ebx, %ebx
0x7f7860ac9ec5:  0f 8c 8d 00 00 00        jl       0x7f7860ac9f58
0x7f7860ac9ecb:  c7 85 20 db ff ff 00 00  movl     $0, -0x24e0(%rbp)
0x7f7860ac9ed3:  00 00
0x7f7860ac9ed5:  8b 5d 18                 movl     0x18(%rbp), %ebx
0x7f7860ac9ed8:  8b fb                    movl     %ebx, %edi
0x7f7860ac9eda:  c1 ef 07                 shrl     $7, %edi
0x7f7860ac9edd:  23 bd 10 ff ff ff        andl     -0xf0(%rbp), %edi
0x7f7860ac9ee3:  48 03 bd 18 ff ff ff     addq     -0xe8(%rbp), %rdi
0x7f7860ac9eea:  8d 73 03                 leal     3(%rbx), %esi
0x7f7860ac9eed:  81 e6 00 f0 ff ff        andl     $0xfffff000, %esi
0x7f7860ac9ef3:  3b 37                    cmpl     (%rdi), %esi
0x7f7860ac9ef5:  0f 85 69 00 00 00        jne      0x7f7860ac9f64
0x7f7860ac9efb:  48 8b 7f 18              movq     0x18(%rdi), %rdi
0x7f7860ac9eff:  44 8b 24 3b              movl     (%rbx, %rdi), %r12d
0x7f7860ac9f03:  44 89 65 00              movl     %r12d, (%rbp)
  -- guest addr 0x0000000000000472
0x7f7860ac9f07:  83 c3 04                 addl     $4, %ebx
0x7f7860ac9f0a:  89 5d 1c                 movl     %ebx, 0x1c(%rbp)
  -- guest addr 0x0000000000000475
0x7f7860ac9f0d:  44 89 65 28              movl     %r12d, 0x28(%rbp)
  -- guest addr 0x0000000000000477
0x7f7860ac9f11:  c7 45 34 18 00 00 00     movl     $0x18, 0x34(%rbp)
0x7f7860ac9f18:  45 85 e4                 testl    %r12d, %r12d
0x7f7860ac9f1b:  0f 84 1b 00 00 00        je       0x7f7860ac9f3c
0x7f7860ac9f21:  8b 5d 20                 movl     0x20(%rbp), %ebx
0x7f7860ac9f24:  83 c3 09                 addl     $9, %ebx
0x7f7860ac9f27:  89 5d 20                 movl     %ebx, 0x20(%rbp)
0x7f7860ac9f2a:  90                       nop      
0x7f7860ac9f2b:  e9 00 00 00 00           jmp      0x7f7860ac9f30
0x7f7860ac9f30:  48 8d 05 ca fe ff ff     leaq     -0x136(%rip), %rax
0x7f7860ac9f37:  e9 dc 60 53 ff           jmp      0x7f7860000018
0x7f7860ac9f3c:  8b 5d 20                 movl     0x20(%rbp), %ebx
0x7f7860ac9f3f:  83 c3 f0                 addl     $-0x10, %ebx
0x7f7860ac9f42:  89 5d 20                 movl     %ebx, 0x20(%rbp)
0x7f7860ac9f45:  66 90                    nop      
0x7f7860ac9f47:  e9 00 00 00 00           jmp      0x7f7860ac9f4c
0x7f7860ac9f4c:  48 8d 05 ad fe ff ff     leaq     -0x153(%rip), %rax
0x7f7860ac9f53:  e9 c0 60 53 ff           jmp      0x7f7860000018
0x7f7860ac9f58:  48 8d 05 a4 fe ff ff     leaq     -0x15c(%rip), %rax
0x7f7860ac9f5f:  e9 b4 60 53 ff           jmp      0x7f7860000018
  -- tb slow paths + alignment
0x7f7860ac9f64:  8b f3                    movl     %ebx, %esi
0x7f7860ac9f66:  48 8b fd                 movq     %rbp, %rdi
0x7f7860ac9f69:  ba 22 00 00 00           movl     $0x22, %edx
0x7f7860ac9f6e:  48 8d 0d 8e ff ff ff     leaq     -0x72(%rip), %rcx
0x7f7860ac9f75:  ff 15 0d 00 00 00        callq    *0xd(%rip)
0x7f7860ac9f7b:  44 8b e0                 movl     %eax, %r12d
0x7f7860ac9f7e:  e9 80 ff ff ff           jmp      0x7f7860ac9f03
0x7f7860ac9f83:  90                       nop      
0x7f7860ac9f84:  90                       nop      
0x7f7860ac9f85:  90                       nop      
0x7f7860ac9f86:  90                       nop      
0x7f7860ac9f87:  90                       nop      
  data: [size=8]
0x7f7860ac9f88:  .quad  0x0000557106c21270

OUT: [size=272]
  -- guest addr 0x0000000000000479 + tb prologue
0x7f7860aca080:  8b 5d f0                 movl     -0x10(%rbp), %ebx
0x7f7860aca083:  85 db                    testl    %ebx, %ebx
0x7f7860aca085:  0f 8c b1 00 00 00        jl       0x7f7860aca13c
0x7f7860aca08b:  c7 85 20 db ff ff 00 00  movl     $0, -0x24e0(%rbp)
0x7f7860aca093:  00 00
0x7f7860aca095:  8b 5d 14                 movl     0x14(%rbp), %ebx
0x7f7860aca098:  44 8d 63 c8              leal     -0x38(%rbx), %r12d
0x7f7860aca09c:  44 89 65 08              movl     %r12d, 8(%rbp)
  -- guest addr 0x000000000000047c
0x7f7860aca0a0:  c7 45 04 10 00 00 00     movl     $0x10, 4(%rbp)
  -- guest addr 0x0000000000000481
0x7f7860aca0a7:  44 8b 6d 1c              movl     0x1c(%rbp), %r13d
0x7f7860aca0ab:  44 89 6d 18              movl     %r13d, 0x18(%rbp)
  -- guest addr 0x0000000000000483
0x7f7860aca0af:  83 c3 c4                 addl     $-0x3c, %ebx
0x7f7860aca0b2:  8b fb                    movl     %ebx, %edi
0x7f7860aca0b4:  c1 ef 07                 shrl     $7, %edi
0x7f7860aca0b7:  23 bd 10 ff ff ff        andl     -0xf0(%rbp), %edi
0x7f7860aca0bd:  48 03 bd 18 ff ff ff     addq     -0xe8(%rbp), %rdi
0x7f7860aca0c4:  8d 73 03                 leal     3(%rbx), %esi
0x7f7860aca0c7:  81 e6 00 f0 ff ff        andl     $0xfffff000, %esi
0x7f7860aca0cd:  3b 77 08                 cmpl     8(%rdi), %esi
0x7f7860aca0d0:  0f 85 72 00 00 00        jne      0x7f7860aca148
0x7f7860aca0d6:  48 8b 7f 18              movq     0x18(%rdi), %rdi
0x7f7860aca0da:  44 89 24 3b              movl     %r12d, (%rbx, %rdi)
  -- guest addr 0x0000000000000486
0x7f7860aca0de:  8b 5d 20                 movl     0x20(%rbp), %ebx
0x7f7860aca0e1:  44 8d 63 12              leal     0x12(%rbx), %r12d
0x7f7860aca0e5:  44 8b 6d 10              movl     0x10(%rbp), %r13d
0x7f7860aca0e9:  41 83 ed 04              subl     $4, %r13d
0x7f7860aca0ed:  41 8b fd                 movl     %r13d, %edi
0x7f7860aca0f0:  c1 ef 07                 shrl     $7, %edi
0x7f7860aca0f3:  23 bd 10 ff ff ff        andl     -0xf0(%rbp), %edi
0x7f7860aca0f9:  48 03 bd 18 ff ff ff     addq     -0xe8(%rbp), %rdi
0x7f7860aca100:  41 8d 75 03              leal     3(%r13), %esi
0x7f7860aca104:  81 e6 00 f0 ff ff        andl     $0xfffff000, %esi
0x7f7860aca10a:  3b 77 08                 cmpl     8(%rdi), %esi
0x7f7860aca10d:  0f 85 54 00 00 00        jne      0x7f7860aca167
0x7f7860aca113:  48 8b 7f 18              movq     0x18(%rdi), %rdi
0x7f7860aca117:  45 89 64 3d 00           movl     %r12d, (%r13, %rdi)
0x7f7860aca11c:  44 89 6d 10              movl     %r13d, 0x10(%rbp)
0x7f7860aca120:  81 c3 77 fe ff ff        addl     $0xfffffe77, %ebx
0x7f7860aca126:  89 5d 20                 movl     %ebx, 0x20(%rbp)
0x7f7860aca129:  66 90                    nop      
0x7f7860aca12b:  e9 00 00 00 00           jmp      0x7f7860aca130
0x7f7860aca130:  48 8d 05 89 fe ff ff     leaq     -0x177(%rip), %rax
0x7f7860aca137:  e9 dc 5e 53 ff           jmp      0x7f7860000018
0x7f7860aca13c:  48 8d 05 80 fe ff ff     leaq     -0x180(%rip), %rax
0x7f7860aca143:  e9 d0 5e 53 ff           jmp      0x7f7860000018
  -- tb slow paths + alignment
0x7f7860aca148:  8b f3                    movl     %ebx, %esi
0x7f7860aca14a:  41 8b d4                 movl     %r12d, %edx
0x7f7860aca14d:  48 8b fd                 movq     %rbp, %rdi
0x7f7860aca150:  b9 22 00 00 00           movl     $0x22, %ecx
0x7f7860aca155:  4c 8d 05 82 ff ff ff     leaq     -0x7e(%rip), %r8
0x7f7860aca15c:  ff 15 26 00 00 00        callq    *0x26(%rip)
0x7f7860aca162:  e9 77 ff ff ff           jmp      0x7f7860aca0de
0x7f7860aca167:  41 8b f5                 movl     %r13d, %esi
0x7f7860aca16a:  41 8b d4                 movl     %r12d, %edx
0x7f7860aca16d:  48 8b fd                 movq     %rbp, %rdi
0x7f7860aca170:  b9 22 00 00 00           movl     $0x22, %ecx
0x7f7860aca175:  4c 8d 05 a0 ff ff ff     leaq     -0x60(%rip), %r8
0x7f7860aca17c:  ff 15 06 00 00 00        callq    *6(%rip)
0x7f7860aca182:  e9 95 ff ff ff           jmp      0x7f7860aca11c
0x7f7860aca187:  90                       nop      
  data: [size=8]
0x7f7860aca188:  .quad  0x0000557106c21520

OUT: [size=624]
  -- guest addr 0x00000000000002f0 + tb prologue
0x7f7860aca280:  8b 5d f0                 movl     -0x10(%rbp), %ebx
0x7f7860aca283:  85 db                    testl    %ebx, %ebx
0x7f7860aca285:  0f 8c b1 01 00 00        jl       0x7f7860aca43c
0x7f7860aca28b:  c7 85 20 db ff ff 00 00  movl     $0, -0x24e0(%rbp)
0x7f7860aca293:  00 00
0x7f7860aca295:  8b 5d 10                 movl     0x10(%rbp), %ebx
0x7f7860aca298:  83 eb 04                 subl     $4, %ebx
0x7f7860aca29b:  44 8b 65 14              movl     0x14(%rbp), %r12d
0x7f7860aca29f:  8b fb                    movl     %ebx, %edi
0x7f7860aca2a1:  c1 ef 07                 shrl     $7, %edi
0x7f7860aca2a4:  23 bd 10 ff ff ff        andl     -0xf0(%rbp), %edi
0x7f7860aca2aa:  48 03 bd 18 ff ff ff     addq     -0xe8(%rbp), %rdi
0x7f7860aca2b1:  8d 73 03                 leal     3(%rbx), %esi
0x7f7860aca2b4:  81 e6 00 f0 ff ff        andl     $0xfffff000, %esi
0x7f7860aca2ba:  3b 77 08                 cmpl     8(%rdi), %esi
0x7f7860aca2bd:  0f 85 85 01 00 00        jne      0x7f7860aca448
0x7f7860aca2c3:  48 8b 7f 18              movq     0x18(%rdi), %rdi
0x7f7860aca2c7:  44 89 24 3b              movl     %r12d, (%rbx, %rdi)
0x7f7860aca2cb:  89 5d 10                 movl     %ebx, 0x10(%rbp)
  -- guest addr 0x00000000000002f1
0x7f7860aca2ce:  44 8b e3                 movl     %ebx, %r12d
0x7f7860aca2d1:  44 89 65 14              movl     %r12d, 0x14(%rbp)
  -- guest addr 0x00000000000002f3
0x7f7860aca2d5:  83 eb 04                 subl     $4, %ebx
0x7f7860aca2d8:  44 8b 6d 1c              movl     0x1c(%rbp), %r13d
0x7f7860aca2dc:  8b fb                    movl     %ebx, %edi
0x7f7860aca2de:  c1 ef 07                 shrl     $7, %edi
0x7f7860aca2e1:  23 bd 10 ff ff ff        andl     -0xf0(%rbp), %edi
0x7f7860aca2e7:  48 03 bd 18 ff ff ff     addq     -0xe8(%rbp), %rdi
0x7f7860aca2ee:  8d 73 03                 leal     3(%rbx), %esi
0x7f7860aca2f1:  81 e6 00 f0 ff ff        andl     $0xfffff000, %esi
0x7f7860aca2f7:  3b 77 08                 cmpl     8(%rdi), %esi
0x7f7860aca2fa:  0f 85 67 01 00 00        jne      0x7f7860aca467
0x7f7860aca300:  48 8b 7f 18              movq     0x18(%rdi), %rdi
0x7f7860aca304:  44 89 2c 3b              movl     %r13d, (%rbx, %rdi)
0x7f7860aca308:  89 5d 10                 movl     %ebx, 0x10(%rbp)
  -- guest addr 0x00000000000002f4
0x7f7860aca30b:  83 eb 04                 subl     $4, %ebx
0x7f7860aca30e:  44 8b 6d 18              movl     0x18(%rbp), %r13d
0x7f7860aca312:  8b fb                    movl     %ebx, %edi
0x7f7860aca314:  c1 ef 07                 shrl     $7, %edi
0x7f7860aca317:  23 bd 10 ff ff ff        andl     -0xf0(%rbp), %edi
0x7f7860aca31d:  48 03 bd 18 ff ff ff     addq     -0xe8(%rbp), %rdi
0x7f7860aca324:  8d 73 03                 leal     3(%rbx), %esi
0x7f7860aca327:  81 e6 00 f0 ff ff        andl     $0xfffff000, %esi
0x7f7860aca32d:  3b 77 08                 cmpl     8(%rdi), %esi
0x7f7860aca330:  0f 85 50 01 00 00        jne      0x7f7860aca486
0x7f7860aca336:  48 8b 7f 18              movq     0x18(%rdi), %rdi
0x7f7860aca33a:  44 89 2c 3b              movl     %r13d, (%rbx, %rdi)
0x7f7860aca33e:  89 5d 10                 movl     %ebx, 0x10(%rbp)
  -- guest addr 0x00000000000002f5
0x7f7860aca341:  83 eb 04                 subl     $4, %ebx
0x7f7860aca344:  44 8b 6d 0c              movl     0xc(%rbp), %r13d
0x7f7860aca348:  8b fb                    movl     %ebx, %edi
0x7f7860aca34a:  c1 ef 07                 shrl     $7, %edi
0x7f7860aca34d:  23 bd 10 ff ff ff        andl     -0xf0(%rbp), %edi
0x7f7860aca353:  48 03 bd 18 ff ff ff     addq     -0xe8(%rbp), %rdi
0x7f7860aca35a:  8d 73 03                 leal     3(%rbx), %esi
0x7f7860aca35d:  81 e6 00 f0 ff ff        andl     $0xfffff000, %esi
0x7f7860aca363:  3b 77 08                 cmpl     8(%rdi), %esi
0x7f7860aca366:  0f 85 39 01 00 00        jne      0x7f7860aca4a5
0x7f7860aca36c:  48 8b 7f 18              movq     0x18(%rdi), %rdi
0x7f7860aca370:  44 89 2c 3b              movl     %r13d, (%rbx, %rdi)
  -- guest addr 0x00000000000002f6
0x7f7860aca374:  44 8b 6d 08              movl     8(%rbp), %r13d
0x7f7860aca378:  44 89 6d 0c              movl     %r13d, 0xc(%rbp)
  -- guest addr 0x00000000000002f8
0x7f7860aca37c:  44 8b 6d 00              movl     (%rbp), %r13d
  -- guest addr 0x00000000000002fa
0x7f7860aca380:  41 c1 ed 1f              shrl     $0x1f, %r13d
0x7f7860aca384:  44 89 6d 08              movl     %r13d, 8(%rbp)
  -- guest addr 0x00000000000002fd
0x7f7860aca388:  83 eb 08                 subl     $8, %ebx
0x7f7860aca38b:  89 5d 10                 movl     %ebx, 0x10(%rbp)
  -- guest addr 0x0000000000000300
0x7f7860aca38e:  c7 45 2c 0a 00 00 00     movl     $0xa, 0x2c(%rbp)
0x7f7860aca395:  8b 5d 04                 movl     4(%rbp), %ebx
0x7f7860aca398:  44 8b f3                 movl     %ebx, %r14d
0x7f7860aca39b:  41 83 ee 0a              subl     $0xa, %r14d
0x7f7860aca39f:  44 89 75 28              movl     %r14d, 0x28(%rbp)
  -- guest addr 0x0000000000000303
0x7f7860aca3a3:  41 83 c4 f0              addl     $-0x10, %r12d
0x7f7860aca3a7:  41 8b fc                 movl     %r12d, %edi
0x7f7860aca3aa:  c1 ef 07                 shrl     $7, %edi
0x7f7860aca3ad:  23 bd 10 ff ff ff        andl     -0xf0(%rbp), %edi
0x7f7860aca3b3:  48 03 bd 18 ff ff ff     addq     -0xe8(%rbp), %rdi
0x7f7860aca3ba:  41 8d 74 24 03           leal     3(%r12), %esi
0x7f7860aca3bf:  81 e6 00 f0 ff ff        andl     $0xfffff000, %esi
0x7f7860aca3c5:  3b 77 08                 cmpl     8(%rdi), %esi
0x7f7860aca3c8:  0f 85 f6 00 00 00        jne      0x7f7860aca4c4
0x7f7860aca3ce:  48 8b 7f 18              movq     0x18(%rdi), %rdi
0x7f7860aca3d2:  41 89 1c 3c              movl     %ebx, (%r12, %rdi)
  -- guest addr 0x0000000000000306
0x7f7860aca3d6:  45 85 f6                 testl    %r14d, %r14d
0x7f7860aca3d9:  0f 94 c1                 sete     %cl
0x7f7860aca3dc:  0f b6 c9                 movzbl   %cl, %ecx
0x7f7860aca3df:  88 cb                    movb     %cl, %bl
  -- guest addr 0x0000000000000309
0x7f7860aca3e1:  8b cb                    movl     %ebx, %ecx
0x7f7860aca3e3:  41 23 cd                 andl     %r13d, %ecx
0x7f7860aca3e6:  88 cb                    movb     %cl, %bl
0x7f7860aca3e8:  89 5d 04                 movl     %ebx, 4(%rbp)
0x7f7860aca3eb:  89 4d 28                 movl     %ecx, 0x28(%rbp)
  -- guest addr 0x000000000000030b
0x7f7860aca3ee:  89 5d 1c                 movl     %ebx, 0x1c(%rbp)
  -- guest addr 0x000000000000030d
0x7f7860aca3f1:  c7 45 34 16 00 00 00     movl     $0x16, 0x34(%rbp)
0x7f7860aca3f8:  85 c9                    testl    %ecx, %ecx
0x7f7860aca3fa:  0f 84 1c 00 00 00        je       0x7f7860aca41c
0x7f7860aca400:  8b 5d 20                 movl     0x20(%rbp), %ebx
0x7f7860aca403:  83 c3 1f                 addl     $0x1f, %ebx
0x7f7860aca406:  89 5d 20                 movl     %ebx, 0x20(%rbp)
0x7f7860aca409:  66 90                    nop      
0x7f7860aca40b:  e9 00 00 00 00           jmp      0x7f7860aca410
0x7f7860aca410:  48 8d 05 aa fd ff ff     leaq     -0x256(%rip), %rax
0x7f7860aca417:  e9 fc 5b 53 ff           jmp      0x7f7860000018
0x7f7860aca41c:  8b 5d 20                 movl     0x20(%rbp), %ebx
0x7f7860aca41f:  81 c3 98 00 00 00        addl     $0x98, %ebx
0x7f7860aca425:  89 5d 20                 movl     %ebx, 0x20(%rbp)
0x7f7860aca428:  66 66 90                 nop      
0x7f7860aca42b:  e9 00 00 00 00           jmp      0x7f7860aca430
0x7f7860aca430:  48 8d 05 89 fd ff ff     leaq     -0x277(%rip), %rax
0x7f7860aca437:  e9 dc 5b 53 ff           jmp      0x7f7860000018
0x7f7860aca43c:  48 8d 05 80 fd ff ff     leaq     -0x280(%rip), %rax
0x7f7860aca443:  e9 d0 5b 53 ff           jmp      0x7f7860000018
  -- tb slow paths + alignment
0x7f7860aca448:  8b f3                    movl     %ebx, %esi
0x7f7860aca44a:  41 8b d4                 movl     %r12d, %edx
0x7f7860aca44d:  48 8b fd                 movq     %rbp, %rdi
0x7f7860aca450:  b9 22 00 00 00           movl     $0x22, %ecx
0x7f7860aca455:  4c 8d 05 6f fe ff ff     leaq     -0x191(%rip), %r8
0x7f7860aca45c:  ff 15 86 00 00 00        callq    *0x86(%rip)
0x7f7860aca462:  e9 64 fe ff ff           jmp      0x7f7860aca2cb
0x7f7860aca467:  8b f3                    movl     %ebx, %esi
0x7f7860aca469:  41 8b d5                 movl     %r13d, %edx
0x7f7860aca46c:  48 8b fd                 movq     %rbp, %rdi
0x7f7860aca46f:  b9 22 00 00 00           movl     $0x22, %ecx
0x7f7860aca474:  4c 8d 05 8d fe ff ff     leaq     -0x173(%rip), %r8
0x7f7860aca47b:  ff 15 67 00 00 00        callq    *0x67(%rip)
0x7f7860aca481:  e9 82 fe ff ff           jmp      0x7f7860aca308
0x7f7860aca486:  8b f3                    movl     %ebx, %esi
0x7f7860aca488:  41 8b d5                 movl     %r13d, %edx
0x7f7860aca48b:  48 8b fd                 movq     %rbp, %rdi
0x7f7860aca48e:  b9 22 00 00 00           movl     $0x22, %ecx
0x7f7860aca493:  4c 8d 05 a4 fe ff ff     leaq     -0x15c(%rip), %r8
0x7f7860aca49a:  ff 15 48 00 00 00        callq    *0x48(%rip)
0x7f7860aca4a0:  e9 99 fe ff ff           jmp      0x7f7860aca33e
0x7f7860aca4a5:  8b f3                    movl     %ebx, %esi
0x7f7860aca4a7:  41 8b d5                 movl     %r13d, %edx
0x7f7860aca4aa:  48 8b fd                 movq     %rbp, %rdi
0x7f7860aca4ad:  b9 22 00 00 00           movl     $0x22, %ecx
0x7f7860aca4b2:  4c 8d 05 bb fe ff ff     leaq     -0x145(%rip), %r8
0x7f7860aca4b9:  ff 15 29 00 00 00        callq    *0x29(%rip)
0x7f7860aca4bf:  e9 b0 fe ff ff           jmp      0x7f7860aca374
0x7f7860aca4c4:  41 8b f4                 movl     %r12d, %esi
0x7f7860aca4c7:  8b d3                    movl     %ebx, %edx
0x7f7860aca4c9:  48 8b fd                 movq     %rbp, %rdi
0x7f7860aca4cc:  b9 22 00 00 00           movl     $0x22, %ecx
0x7f7860aca4d1:  4c 8d 05 fe fe ff ff     leaq     -0x102(%rip), %r8
0x7f7860aca4d8:  ff 15 0a 00 00 00        callq    *0xa(%rip)
0x7f7860aca4de:  e9 f3 fe ff ff           jmp      0x7f7860aca3d6
0x7f7860aca4e3:  90                       nop      
0x7f7860aca4e4:  90                       nop      
0x7f7860aca4e5:  90                       nop      
0x7f7860aca4e6:  90                       nop      
0x7f7860aca4e7:  90                       nop      
  data: [size=8]
0x7f7860aca4e8:  .quad  0x0000557106c21520

OUT: [size=108]
  -- guest addr 0x0000000000000388 + tb prologue
0x7f7860aca600:  8b 5d f0                 movl     -0x10(%rbp), %ebx
0x7f7860aca603:  85 db                    testl    %ebx, %ebx
0x7f7860aca605:  0f 8c 55 00 00 00        jl       0x7f7860aca660
0x7f7860aca60b:  c7 85 20 db ff ff 00 00  movl     $0, -0x24e0(%rbp)
0x7f7860aca613:  00 00
0x7f7860aca615:  8b 5d 00                 movl     (%rbp), %ebx
0x7f7860aca618:  89 5d 28                 movl     %ebx, 0x28(%rbp)
  -- guest addr 0x000000000000038a
0x7f7860aca61b:  c7 45 34 18 00 00 00     movl     $0x18, 0x34(%rbp)
0x7f7860aca622:  85 db                    testl    %ebx, %ebx
0x7f7860aca624:  0f 85 1a 00 00 00        jne      0x7f7860aca644
0x7f7860aca62a:  8b 5d 20                 movl     0x20(%rbp), %ebx
0x7f7860aca62d:  83 c3 04                 addl     $4, %ebx
0x7f7860aca630:  89 5d 20                 movl     %ebx, 0x20(%rbp)
0x7f7860aca633:  e9 00 00 00 00           jmp      0x7f7860aca638
0x7f7860aca638:  48 8d 05 02 ff ff ff     leaq     -0xfe(%rip), %rax
0x7f7860aca63f:  e9 d4 59 53 ff           jmp      0x7f7860000018
0x7f7860aca644:  8b 5d 20                 movl     0x20(%rbp), %ebx
0x7f7860aca647:  83 c3 89                 addl     $-0x77, %ebx
0x7f7860aca64a:  89 5d 20                 movl     %ebx, 0x20(%rbp)
0x7f7860aca64d:  66 90                    nop      
0x7f7860aca64f:  e9 00 00 00 00           jmp      0x7f7860aca654
0x7f7860aca654:  48 8d 05 e5 fe ff ff     leaq     -0x11b(%rip), %rax
0x7f7860aca65b:  e9 b8 59 53 ff           jmp      0x7f7860000018
0x7f7860aca660:  48 8d 05 dc fe ff ff     leaq     -0x124(%rip), %rax
0x7f7860aca667:  e9 ac 59 53 ff           jmp      0x7f7860000018

OUT: [size=176]
  -- guest addr 0x0000000000000311 + tb prologue
0x7f7860aca740:  8b 5d f0                 movl     -0x10(%rbp), %ebx
0x7f7860aca743:  85 db                    testl    %ebx, %ebx
0x7f7860aca745:  0f 8c 6d 00 00 00        jl       0x7f7860aca7b8
0x7f7860aca74b:  c7 85 20 db ff ff 00 00  movl     $0, -0x24e0(%rbp)
0x7f7860aca753:  00 00
0x7f7860aca755:  8b 5d 1c                 movl     0x1c(%rbp), %ebx
0x7f7860aca758:  89 5d 08                 movl     %ebx, 8(%rbp)
  -- guest addr 0x0000000000000313
0x7f7860aca75b:  c7 45 04 00 00 00 00     movl     $0, 4(%rbp)
  -- guest addr 0x0000000000000315
0x7f7860aca762:  44 8b 65 14              movl     0x14(%rbp), %r12d
0x7f7860aca766:  41 83 c4 ef              addl     $-0x11, %r12d
0x7f7860aca76a:  41 8b fc                 movl     %r12d, %edi
0x7f7860aca76d:  c1 ef 07                 shrl     $7, %edi
0x7f7860aca770:  23 bd 10 ff ff ff        andl     -0xf0(%rbp), %edi
0x7f7860aca776:  48 03 bd 18 ff ff ff     addq     -0xe8(%rbp), %rdi
0x7f7860aca77d:  41 8b f4                 movl     %r12d, %esi
0x7f7860aca780:  81 e6 00 f0 ff ff        andl     $0xfffff000, %esi
0x7f7860aca786:  3b 77 08                 cmpl     8(%rdi), %esi
0x7f7860aca789:  0f 85 35 00 00 00        jne      0x7f7860aca7c4
0x7f7860aca78f:  48 8b 7f 18              movq     0x18(%rdi), %rdi
0x7f7860aca793:  41 88 1c 3c              movb     %bl, (%r12, %rdi)
  -- guest addr 0x0000000000000318
0x7f7860aca797:  c7 45 34 31 00 00 00     movl     $0x31, 0x34(%rbp)
0x7f7860aca79e:  8b 5d 20                 movl     0x20(%rbp), %ebx
0x7f7860aca7a1:  83 c3 11                 addl     $0x11, %ebx
0x7f7860aca7a4:  89 5d 20                 movl     %ebx, 0x20(%rbp)
0x7f7860aca7a7:  e9 00 00 00 00           jmp      0x7f7860aca7ac
0x7f7860aca7ac:  48 8d 05 cd fe ff ff     leaq     -0x133(%rip), %rax
0x7f7860aca7b3:  e9 60 58 53 ff           jmp      0x7f7860000018
0x7f7860aca7b8:  48 8d 05 c4 fe ff ff     leaq     -0x13c(%rip), %rax
0x7f7860aca7bf:  e9 54 58 53 ff           jmp      0x7f7860000018
  -- tb slow paths + alignment
0x7f7860aca7c4:  41 8b f4                 movl     %r12d, %esi
0x7f7860aca7c7:  8b d3                    movl     %ebx, %edx
0x7f7860aca7c9:  48 8b fd                 movq     %rbp, %rdi
0x7f7860aca7cc:  b9 02 0e 00 00           movl     $0xe02, %ecx
0x7f7860aca7d1:  4c 8d 05 bf ff ff ff     leaq     -0x41(%rip), %r8
0x7f7860aca7d8:  ff 15 0a 00 00 00        callq    *0xa(%rip)
0x7f7860aca7de:  e9 b4 ff ff ff           jmp      0x7f7860aca797
0x7f7860aca7e3:  90                       nop      
0x7f7860aca7e4:  90                       nop      
0x7f7860aca7e5:  90                       nop      
0x7f7860aca7e6:  90                       nop      
0x7f7860aca7e7:  90                       nop      
  data: [size=8]
0x7f7860aca7e8:  .quad  0x0000557106c21470

OUT: [size=368]
  -- guest addr 0x0000000000000322 + tb prologue
0x7f7860aca8c0:  8b 5d f0                 movl     -0x10(%rbp), %ebx
0x7f7860aca8c3:  85 db                    testl    %ebx, %ebx
0x7f7860aca8c5:  0f 8c 01 01 00 00        jl       0x7f7860aca9cc
0x7f7860aca8cb:  c7 85 20 db ff ff 00 00  movl     $0, -0x24e0(%rbp)
0x7f7860aca8d3:  00 00
0x7f7860aca8d5:  8b 5d 00                 movl     (%rbp), %ebx
0x7f7860aca8d8:  c1 fb 1f                 sarl     $0x1f, %ebx
0x7f7860aca8db:  89 5d 08                 movl     %ebx, 8(%rbp)
  -- guest addr 0x0000000000000323
0x7f7860aca8de:  8b 5d 14                 movl     0x14(%rbp), %ebx
0x7f7860aca8e1:  83 c3 f0                 addl     $-0x10, %ebx
0x7f7860aca8e4:  8b fb                    movl     %ebx, %edi
0x7f7860aca8e6:  c1 ef 07                 shrl     $7, %edi
0x7f7860aca8e9:  23 bd 10 ff ff ff        andl     -0xf0(%rbp), %edi
0x7f7860aca8ef:  48 03 bd 18 ff ff ff     addq     -0xe8(%rbp), %rdi
0x7f7860aca8f6:  8d 73 03                 leal     3(%rbx), %esi
0x7f7860aca8f9:  81 e6 00 f0 ff ff        andl     $0xfffff000, %esi
0x7f7860aca8ff:  3b 37                    cmpl     (%rdi), %esi
0x7f7860aca901:  0f 85 d1 00 00 00        jne      0x7f7860aca9d8
0x7f7860aca907:  48 8b 7f 18              movq     0x18(%rdi), %rdi
0x7f7860aca90b:  8b 34 3b                 movl     (%rbx, %rdi), %esi
0x7f7860aca90e:  48 8b fd                 movq     %rbp, %rdi
0x7f7860aca911:  ff 15 01 01 00 00        callq    *0x101(%rip)
  -- guest addr 0x0000000000000326
0x7f7860aca917:  8b 5d 08                 movl     8(%rbp), %ebx
0x7f7860aca91a:  44 8d 63 57              leal     0x57(%rbx), %r12d
  -- guest addr 0x0000000000000329
0x7f7860aca91e:  44 8d 6b 30              leal     0x30(%rbx), %r13d
0x7f7860aca922:  44 89 6d 1c              movl     %r13d, 0x1c(%rbp)
  -- guest addr 0x000000000000032c
0x7f7860aca926:  c7 45 2c 0a 00 00 00     movl     $0xa, 0x2c(%rbp)
0x7f7860aca92d:  44 8b f3                 movl     %ebx, %r14d
0x7f7860aca930:  41 83 ee 0a              subl     $0xa, %r14d
0x7f7860aca934:  44 89 75 28              movl     %r14d, 0x28(%rbp)
  -- guest addr 0x000000000000032f
0x7f7860aca938:  83 fb 0a                 cmpl     $0xa, %ebx
0x7f7860aca93b:  45 0f 4c e5              cmovll   %r13d, %r12d
  -- guest addr 0x0000000000000332
0x7f7860aca93f:  44 89 65 08              movl     %r12d, 8(%rbp)
  -- guest addr 0x0000000000000334
0x7f7860aca943:  8b 5d 04                 movl     4(%rbp), %ebx
0x7f7860aca946:  ff c3                    incl     %ebx
0x7f7860aca948:  89 5d 18                 movl     %ebx, 0x18(%rbp)
  -- guest addr 0x0000000000000337
0x7f7860aca94b:  44 8b 6d 0c              movl     0xc(%rbp), %r13d
0x7f7860aca94f:  41 03 dd                 addl     %r13d, %ebx
0x7f7860aca952:  ff cb                    decl     %ebx
0x7f7860aca954:  8b fb                    movl     %ebx, %edi
0x7f7860aca956:  c1 ef 07                 shrl     $7, %edi
0x7f7860aca959:  23 bd 10 ff ff ff        andl     -0xf0(%rbp), %edi
0x7f7860aca95f:  48 03 bd 18 ff ff ff     addq     -0xe8(%rbp), %rdi
0x7f7860aca966:  8b f3                    movl     %ebx, %esi
0x7f7860aca968:  81 e6 00 f0 ff ff        andl     $0xfffff000, %esi
0x7f7860aca96e:  3b 77 08                 cmpl     8(%rdi), %esi
0x7f7860aca971:  0f 85 7f 00 00 00        jne      0x7f7860aca9f6
0x7f7860aca977:  48 8b 7f 18              movq     0x18(%rdi), %rdi
0x7f7860aca97b:  44 88 24 3b              movb     %r12b, (%rbx, %rdi)
  -- guest addr 0x000000000000033b
0x7f7860aca97f:  8b 5d 00                 movl     (%rbp), %ebx
0x7f7860aca982:  89 5d 28                 movl     %ebx, 0x28(%rbp)
  -- guest addr 0x000000000000033d
0x7f7860aca985:  c7 45 34 18 00 00 00     movl     $0x18, 0x34(%rbp)
0x7f7860aca98c:  85 db                    testl    %ebx, %ebx
0x7f7860aca98e:  0f 85 1c 00 00 00        jne      0x7f7860aca9b0
0x7f7860aca994:  8b 5d 20                 movl     0x20(%rbp), %ebx
0x7f7860aca997:  83 c3 1d                 addl     $0x1d, %ebx
0x7f7860aca99a:  89 5d 20                 movl     %ebx, 0x20(%rbp)
0x7f7860aca99d:  66 90                    nop      
0x7f7860aca99f:  e9 00 00 00 00           jmp      0x7f7860aca9a4
0x7f7860aca9a4:  48 8d 05 56 fe ff ff     leaq     -0x1aa(%rip), %rax
0x7f7860aca9ab:  e9 68 56 53 ff           jmp      0x7f7860000018
0x7f7860aca9b0:  8b 5d 20                 movl     0x20(%rbp), %ebx
0x7f7860aca9b3:  83 c3 fe                 addl     $-2, %ebx
0x7f7860aca9b6:  89 5d 20                 movl     %ebx, 0x20(%rbp)
0x7f7860aca9b9:  66 90                    nop      
0x7f7860aca9bb:  e9 00 00 00 00           jmp      0x7f7860aca9c0
0x7f7860aca9c0:  48 8d 05 39 fe ff ff     leaq     -0x1c7(%rip), %rax
0x7f7860aca9c7:  e9 4c 56 53 ff           jmp      0x7f7860000018
0x7f7860aca9cc:  48 8d 05 30 fe ff ff     leaq     -0x1d0(%rip), %rax
0x7f7860aca9d3:  e9 40 56 53 ff           jmp      0x7f7860000018
  -- tb slow paths + alignment
0x7f7860aca9d8:  8b f3                    movl     %ebx, %esi
0x7f7860aca9da:  48 8b fd                 movq     %rbp, %rdi
0x7f7860aca9dd:  ba 22 00 00 00           movl     $0x22, %edx
0x7f7860aca9e2:  48 8d 0d 25 ff ff ff     leaq     -0xdb(%rip), %rcx
0x7f7860aca9e9:  ff 15 39 00 00 00        callq    *0x39(%rip)
0x7f7860aca9ef:  8b f0                    movl     %eax, %esi
0x7f7860aca9f1:  e9 18 ff ff ff           jmp      0x7f7860aca90e
0x7f7860aca9f6:  8b f3                    movl     %ebx, %esi
0x7f7860aca9f8:  41 8b d4                 movl     %r12d, %edx
0x7f7860aca9fb:  48 8b fd                 movq     %rbp, %rdi
0x7f7860aca9fe:  b9 02 0e 00 00           movl     $0xe02, %ecx
0x7f7860acaa03:  4c 8d 05 75 ff ff ff     leaq     -0x8b(%rip), %r8
0x7f7860acaa0a:  ff 15 10 00 00 00        callq    *0x10(%rip)
0x7f7860acaa10:  e9 6a ff ff ff           jmp      0x7f7860aca97f
0x7f7860acaa15:  90                       nop      
0x7f7860acaa16:  90                       nop      
0x7f7860acaa17:  90                       nop      
  data: [size=24]
0x7f7860acaa18:  .quad  0x0000557106b3d870
0x7f7860acaa20:  .quad  0x0000557106c21470
0x7f7860acaa28:  .quad  0x0000557106c21270

OUT: [size=368]
  -- guest addr 0x0000000000000320 + tb prologue
0x7f7860acab40:  8b 5d f0                 movl     -0x10(%rbp), %ebx
0x7f7860acab43:  85 db                    testl    %ebx, %ebx
0x7f7860acab45:  0f 8c fd 00 00 00        jl       0x7f7860acac48
0x7f7860acab4b:  c7 85 20 db ff ff 00 00  movl     $0, -0x24e0(%rbp)
0x7f7860acab53:  00 00
0x7f7860acab55:  8b 5d 18                 movl     0x18(%rbp), %ebx
0x7f7860acab58:  89 5d 04                 movl     %ebx, 4(%rbp)
  -- guest addr 0x0000000000000322
0x7f7860acab5b:  8b 5d 00                 movl     (%rbp), %ebx
0x7f7860acab5e:  c1 fb 1f                 sarl     $0x1f, %ebx
0x7f7860acab61:  89 5d 08                 movl     %ebx, 8(%rbp)
  -- guest addr 0x0000000000000323
0x7f7860acab64:  8b 5d 14                 movl     0x14(%rbp), %ebx
0x7f7860acab67:  83 c3 f0                 addl     $-0x10, %ebx
0x7f7860acab6a:  8b fb                    movl     %ebx, %edi
0x7f7860acab6c:  c1 ef 07                 shrl     $7, %edi
0x7f7860acab6f:  23 bd 10 ff ff ff        andl     -0xf0(%rbp), %edi
0x7f7860acab75:  48 03 bd 18 ff ff ff     addq     -0xe8(%rbp), %rdi
0x7f7860acab7c:  8d 73 03                 leal     3(%rbx), %esi
0x7f7860acab7f:  81 e6 00 f0 ff ff        andl     $0xfffff000, %esi
0x7f7860acab85:  3b 37                    cmpl     (%rdi), %esi
0x7f7860acab87:  0f 85 c7 00 00 00        jne      0x7f7860acac54
0x7f7860acab8d:  48 8b 7f 18              movq     0x18(%rdi), %rdi
0x7f7860acab91:  8b 34 3b                 movl     (%rbx, %rdi), %esi
0x7f7860acab94:  48 8b fd                 movq     %rbp, %rdi
0x7f7860acab97:  ff 15 fb 00 00 00        callq    *0xfb(%rip)
  -- guest addr 0x0000000000000326
0x7f7860acab9d:  8b 5d 08                 movl     8(%rbp), %ebx
0x7f7860acaba0:  44 8d 63 57              leal     0x57(%rbx), %r12d
  -- guest addr 0x0000000000000329
0x7f7860acaba4:  44 8d 6b 30              leal     0x30(%rbx), %r13d
0x7f7860acaba8:  44 89 6d 1c              movl     %r13d, 0x1c(%rbp)
  -- guest addr 0x000000000000032c
0x7f7860acabac:  c7 45 2c 0a 00 00 00     movl     $0xa, 0x2c(%rbp)
0x7f7860acabb3:  44 8b f3                 movl     %ebx, %r14d
0x7f7860acabb6:  41 83 ee 0a              subl     $0xa, %r14d
0x7f7860acabba:  44 89 75 28              movl     %r14d, 0x28(%rbp)
  -- guest addr 0x000000000000032f
0x7f7860acabbe:  83 fb 0a                 cmpl     $0xa, %ebx
0x7f7860acabc1:  45 0f 4c e5              cmovll   %r13d, %r12d
  -- guest addr 0x0000000000000332
0x7f7860acabc5:  44 89 65 08              movl     %r12d, 8(%rbp)
  -- guest addr 0x0000000000000334
0x7f7860acabc9:  8b 5d 04                 movl     4(%rbp), %ebx
0x7f7860acabcc:  ff c3                    incl     %ebx
0x7f7860acabce:  89 5d 18                 movl     %ebx, 0x18(%rbp)
  -- guest addr 0x0000000000000337
0x7f7860acabd1:  44 8b 6d 0c              movl     0xc(%rbp), %r13d
0x7f7860acabd5:  41 03 dd                 addl     %r13d, %ebx
0x7f7860acabd8:  ff cb                    decl     %ebx
0x7f7860acabda:  8b fb                    movl     %ebx, %edi
0x7f7860acabdc:  c1 ef 07                 shrl     $7, %edi
0x7f7860acabdf:  23 bd 10 ff ff ff        andl     -0xf0(%rbp), %edi
0x7f7860acabe5:  48 03 bd 18 ff ff ff     addq     -0xe8(%rbp), %rdi
0x7f7860acabec:  8b f3                    movl     %ebx, %esi
0x7f7860acabee:  81 e6 00 f0 ff ff        andl     $0xfffff000, %esi
0x7f7860acabf4:  3b 77 08                 cmpl     8(%rdi), %esi
0x7f7860acabf7:  0f 85 75 00 00 00        jne      0x7f7860acac72
0x7f7860acabfd:  48 8b 7f 18              movq     0x18(%rdi), %rdi
0x7f7860acac01:  44 88 24 3b              movb     %r12b, (%rbx, %rdi)
  -- guest addr 0x000000000000033b
0x7f7860acac05:  8b 5d 00                 movl     (%rbp), %ebx
0x7f7860acac08:  89 5d 28                 movl     %ebx, 0x28(%rbp)
  -- guest addr 0x000000000000033d
0x7f7860acac0b:  c7 45 34 18 00 00 00     movl     $0x18, 0x34(%rbp)
0x7f7860acac12:  85 db                    testl    %ebx, %ebx
0x7f7860acac14:  0f 85 1a 00 00 00        jne      0x7f7860acac34
0x7f7860acac1a:  8b 5d 20                 movl     0x20(%rbp), %ebx
0x7f7860acac1d:  83 c3 1f                 addl     $0x1f, %ebx
0x7f7860acac20:  89 5d 20                 movl     %ebx, 0x20(%rbp)
0x7f7860acac23:  e9 00 00 00 00           jmp      0x7f7860acac28
0x7f7860acac28:  48 8d 05 52 fe ff ff     leaq     -0x1ae(%rip), %rax
0x7f7860acac2f:  e9 e4 53 53 ff           jmp      0x7f7860000018
0x7f7860acac34:  66 66 90                 nop      
0x7f7860acac37:  e9 00 00 00 00           jmp      0x7f7860acac3c
0x7f7860acac3c:  48 8d 05 3d fe ff ff     leaq     -0x1c3(%rip), %rax
0x7f7860acac43:  e9 d0 53 53 ff           jmp      0x7f7860000018
0x7f7860acac48:  48 8d 05 34 fe ff ff     leaq     -0x1cc(%rip), %rax
0x7f7860acac4f:  e9 c4 53 53 ff           jmp      0x7f7860000018
  -- tb slow paths + alignment
0x7f7860acac54:  8b f3                    movl     %ebx, %esi
0x7f7860acac56:  48 8b fd                 movq     %rbp, %rdi
0x7f7860acac59:  ba 22 00 00 00           movl     $0x22, %edx
0x7f7860acac5e:  48 8d 0d 2f ff ff ff     leaq     -0xd1(%rip), %rcx
0x7f7860acac65:  ff 15 3d 00 00 00        callq    *0x3d(%rip)
0x7f7860acac6b:  8b f0                    movl     %eax, %esi
0x7f7860acac6d:  e9 22 ff ff ff           jmp      0x7f7860acab94
0x7f7860acac72:  8b f3                    movl     %ebx, %esi
0x7f7860acac74:  41 8b d4                 movl     %r12d, %edx
0x7f7860acac77:  48 8b fd                 movq     %rbp, %rdi
0x7f7860acac7a:  b9 02 0e 00 00           movl     $0xe02, %ecx
0x7f7860acac7f:  4c 8d 05 7f ff ff ff     leaq     -0x81(%rip), %r8
0x7f7860acac86:  ff 15 14 00 00 00        callq    *0x14(%rip)
0x7f7860acac8c:  e9 74 ff ff ff           jmp      0x7f7860acac05
0x7f7860acac91:  90                       nop      
0x7f7860acac92:  90                       nop      
0x7f7860acac93:  90                       nop      
0x7f7860acac94:  90                       nop      
0x7f7860acac95:  90                       nop      
0x7f7860acac96:  90                       nop      
0x7f7860acac97:  90                       nop      
  data: [size=24]
0x7f7860acac98:  .quad  0x0000557106b3d870
0x7f7860acaca0:  .quad  0x0000557106c21470
0x7f7860acaca8:  .quad  0x0000557106c21270

OUT: [size=224]
  -- guest addr 0x000000000000033f + tb prologue
0x7f7860acadc0:  8b 5d f0                 movl     -0x10(%rbp), %ebx
0x7f7860acadc3:  85 db                    testl    %ebx, %ebx
0x7f7860acadc5:  0f 8c 9d 00 00 00        jl       0x7f7860acae68
0x7f7860acadcb:  c7 85 20 db ff ff 00 00  movl     $0, -0x24e0(%rbp)
0x7f7860acadd3:  00 00
0x7f7860acadd5:  8b 5d 14                 movl     0x14(%rbp), %ebx
0x7f7860acadd8:  83 c3 ef                 addl     $-0x11, %ebx
0x7f7860acaddb:  8b fb                    movl     %ebx, %edi
0x7f7860acaddd:  c1 ef 07                 shrl     $7, %edi
0x7f7860acade0:  23 bd 10 ff ff ff        andl     -0xf0(%rbp), %edi
0x7f7860acade6:  48 03 bd 18 ff ff ff     addq     -0xe8(%rbp), %rdi
0x7f7860acaded:  8b f3                    movl     %ebx, %esi
0x7f7860acadef:  81 e6 00 f0 ff ff        andl     $0xfffff000, %esi
0x7f7860acadf5:  3b 37                    cmpl     (%rdi), %esi
0x7f7860acadf7:  0f 85 77 00 00 00        jne      0x7f7860acae74
0x7f7860acadfd:  48 8b 7f 18              movq     0x18(%rdi), %rdi
0x7f7860acae01:  0f b6 1c 3b              movzbl   (%rbx, %rdi), %ebx
0x7f7860acae05:  89 5d 1c                 movl     %ebx, 0x1c(%rbp)
  -- guest addr 0x0000000000000343
0x7f7860acae08:  44 8b 65 18              movl     0x18(%rbp), %r12d
0x7f7860acae0c:  44 89 65 08              movl     %r12d, 8(%rbp)
  -- guest addr 0x0000000000000345
0x7f7860acae10:  44 8b 6d 0c              movl     0xc(%rbp), %r13d
0x7f7860acae14:  45 03 e5                 addl     %r13d, %r12d
0x7f7860acae17:  44 89 65 18              movl     %r12d, 0x18(%rbp)
  -- guest addr 0x0000000000000348
0x7f7860acae1b:  89 5d 00                 movl     %ebx, (%rbp)
  -- guest addr 0x000000000000034a
0x7f7860acae1e:  89 5d 28                 movl     %ebx, 0x28(%rbp)
  -- guest addr 0x000000000000034c
0x7f7860acae21:  c7 45 34 16 00 00 00     movl     $0x16, 0x34(%rbp)
0x7f7860acae28:  85 db                    testl    %ebx, %ebx
0x7f7860acae2a:  0f 84 1c 00 00 00        je       0x7f7860acae4c
0x7f7860acae30:  8b 5d 20                 movl     0x20(%rbp), %ebx
0x7f7860acae33:  83 c3 0f                 addl     $0xf, %ebx
0x7f7860acae36:  89 5d 20                 movl     %ebx, 0x20(%rbp)
0x7f7860acae39:  66 90                    nop      
0x7f7860acae3b:  e9 00 00 00 00           jmp      0x7f7860acae40
0x7f7860acae40:  48 8d 05 ba fe ff ff     leaq     -0x146(%rip), %rax
0x7f7860acae47:  e9 cc 51 53 ff           jmp      0x7f7860000018
0x7f7860acae4c:  8b 5d 20                 movl     0x20(%rbp), %ebx
0x7f7860acae4f:  83 c3 61                 addl     $0x61, %ebx
0x7f7860acae52:  89 5d 20                 movl     %ebx, 0x20(%rbp)
0x7f7860acae55:  66 90                    nop      
0x7f7860acae57:  e9 00 00 00 00           jmp      0x7f7860acae5c
0x7f7860acae5c:  48 8d 05 9d fe ff ff     leaq     -0x163(%rip), %rax
0x7f7860acae63:  e9 b0 51 53 ff           jmp      0x7f7860000018
0x7f7860acae68:  48 8d 05 94 fe ff ff     leaq     -0x16c(%rip), %rax
0x7f7860acae6f:  e9 a4 51 53 ff           jmp      0x7f7860000018
  -- tb slow paths + alignment
0x7f7860acae74:  8b f3                    movl     %ebx, %esi
0x7f7860acae76:  48 8b fd                 movq     %rbp, %rdi
0x7f7860acae79:  ba 02 0e 00 00           movl     $0xe02, %edx
0x7f7860acae7e:  48 8d 0d 80 ff ff ff     leaq     -0x80(%rip), %rcx
0x7f7860acae85:  ff 15 0d 00 00 00        callq    *0xd(%rip)
0x7f7860acae8b:  8b d8                    movl     %eax, %ebx
0x7f7860acae8d:  e9 73 ff ff ff           jmp      0x7f7860acae05
0x7f7860acae92:  90                       nop      
0x7f7860acae93:  90                       nop      
0x7f7860acae94:  90                       nop      
0x7f7860acae95:  90                       nop      
0x7f7860acae96:  90                       nop      
0x7f7860acae97:  90                       nop      
  data: [size=8]
0x7f7860acae98:  .quad  0x0000557106c211c0

OUT: [size=208]
  -- guest addr 0x00000000000003a0 + tb prologue
0x7f7860acaf80:  8b 5d f0                 movl     -0x10(%rbp), %ebx
0x7f7860acaf83:  85 db                    testl    %ebx, %ebx
0x7f7860acaf85:  0f 8c 91 00 00 00        jl       0x7f7860acb01c
0x7f7860acaf8b:  c7 85 20 db ff ff 00 00  movl     $0, -0x24e0(%rbp)
0x7f7860acaf93:  00 00
0x7f7860acaf95:  33 db                    xorl     %ebx, %ebx
0x7f7860acaf97:  44 8b 65 18              movl     0x18(%rbp), %r12d
0x7f7860acaf9b:  41 8b fc                 movl     %r12d, %edi
0x7f7860acaf9e:  c1 ef 07                 shrl     $7, %edi
0x7f7860acafa1:  23 bd 10 ff ff ff        andl     -0xf0(%rbp), %edi
0x7f7860acafa7:  48 03 bd 18 ff ff ff     addq     -0xe8(%rbp), %rdi
0x7f7860acafae:  41 8b f4                 movl     %r12d, %esi
0x7f7860acafb1:  81 e6 00 f0 ff ff        andl     $0xfffff000, %esi
0x7f7860acafb7:  3b 77 08                 cmpl     8(%rdi), %esi
0x7f7860acafba:  0f 85 68 00 00 00        jne      0x7f7860acb028
0x7f7860acafc0:  48 8b 7f 18              movq     0x18(%rdi), %rdi
0x7f7860acafc4:  41 88 1c 3c              movb     %bl, (%r12, %rdi)
  -- guest addr 0x00000000000003a3
0x7f7860acafc8:  44 8b 65 04              movl     4(%rbp), %r12d
0x7f7860acafcc:  44 89 65 08              movl     %r12d, 8(%rbp)
  -- guest addr 0x00000000000003a5
0x7f7860acafd0:  44 89 65 28              movl     %r12d, 0x28(%rbp)
  -- guest addr 0x00000000000003a7
0x7f7860acafd4:  c7 45 34 18 00 00 00     movl     $0x18, 0x34(%rbp)
0x7f7860acafdb:  44 3b e3                 cmpl     %ebx, %r12d
0x7f7860acafde:  0f 85 1c 00 00 00        jne      0x7f7860acb000
0x7f7860acafe4:  8b 5d 20                 movl     0x20(%rbp), %ebx
0x7f7860acafe7:  83 c3 09                 addl     $9, %ebx
0x7f7860acafea:  89 5d 20                 movl     %ebx, 0x20(%rbp)
0x7f7860acafed:  66 90                    nop      
0x7f7860acafef:  e9 00 00 00 00           jmp      0x7f7860acaff4
0x7f7860acaff4:  48 8d 05 c6 fe ff ff     leaq     -0x13a(%rip), %rax
0x7f7860acaffb:  e9 18 50 53 ff           jmp      0x7f7860000018
0x7f7860acb000:  8b 5d 20                 movl     0x20(%rbp), %ebx
0x7f7860acb003:  83 c3 b6                 addl     $-0x4a, %ebx
0x7f7860acb006:  89 5d 20                 movl     %ebx, 0x20(%rbp)
0x7f7860acb009:  66 90                    nop      
0x7f7860acb00b:  e9 00 00 00 00           jmp      0x7f7860acb010
0x7f7860acb010:  48 8d 05 a9 fe ff ff     leaq     -0x157(%rip), %rax
0x7f7860acb017:  e9 fc 4f 53 ff           jmp      0x7f7860000018
0x7f7860acb01c:  48 8d 05 a0 fe ff ff     leaq     -0x160(%rip), %rax
0x7f7860acb023:  e9 f0 4f 53 ff           jmp      0x7f7860000018
  -- tb slow paths + alignment
0x7f7860acb028:  41 8b f4                 movl     %r12d, %esi
0x7f7860acb02b:  8b d3                    movl     %ebx, %edx
0x7f7860acb02d:  48 8b fd                 movq     %rbp, %rdi
0x7f7860acb030:  b9 02 0e 00 00           movl     $0xe02, %ecx
0x7f7860acb035:  4c 8d 05 8c ff ff ff     leaq     -0x74(%rip), %r8
0x7f7860acb03c:  ff 15 06 00 00 00        callq    *6(%rip)
0x7f7860acb042:  e9 81 ff ff ff           jmp      0x7f7860acafc8
0x7f7860acb047:  90                       nop      
  data: [size=8]
0x7f7860acb048:  .quad  0x0000557106c21470

OUT: [size=504]
  -- guest addr 0x0000000000000356 + tb prologue
0x7f7860acb140:  8b 5d f0                 movl     -0x10(%rbp), %ebx
0x7f7860acb143:  85 db                    testl    %ebx, %ebx
0x7f7860acb145:  0f 8c 51 01 00 00        jl       0x7f7860acb29c
0x7f7860acb14b:  c7 85 20 db ff ff 00 00  movl     $0, -0x24e0(%rbp)
0x7f7860acb153:  00 00
0x7f7860acb155:  c7 45 00 00 00 00 00     movl     $0, (%rbp)
  -- guest addr 0x0000000000000360
0x7f7860acb15c:  8b 5d 0c                 movl     0xc(%rbp), %ebx
0x7f7860acb15f:  8b fb                    movl     %ebx, %edi
0x7f7860acb161:  c1 ef 07                 shrl     $7, %edi
0x7f7860acb164:  23 bd 10 ff ff ff        andl     -0xf0(%rbp), %edi
0x7f7860acb16a:  48 03 bd 18 ff ff ff     addq     -0xe8(%rbp), %rdi
0x7f7860acb171:  8b f3                    movl     %ebx, %esi
0x7f7860acb173:  81 e6 00 f0 ff ff        andl     $0xfffff000, %esi
0x7f7860acb179:  3b 37                    cmpl     (%rdi), %esi
0x7f7860acb17b:  0f 85 27 01 00 00        jne      0x7f7860acb2a8
0x7f7860acb181:  48 8b 7f 18              movq     0x18(%rdi), %rdi
0x7f7860acb185:  44 0f b6 24 3b           movzbl   (%rbx, %rdi), %r12d
0x7f7860acb18a:  44 89 65 1c              movl     %r12d, 0x1c(%rbp)
  -- guest addr 0x0000000000000364
0x7f7860acb18e:  44 8b 6d 08              movl     8(%rbp), %r13d
0x7f7860acb192:  45 8d 74 1d 00           leal     (%r13, %rbx), %r14d
0x7f7860acb197:  41 8b fe                 movl     %r14d, %edi
0x7f7860acb19a:  c1 ef 07                 shrl     $7, %edi
0x7f7860acb19d:  23 bd 10 ff ff ff        andl     -0xf0(%rbp), %edi
0x7f7860acb1a3:  48 03 bd 18 ff ff ff     addq     -0xe8(%rbp), %rdi
0x7f7860acb1aa:  41 8b f6                 movl     %r14d, %esi
0x7f7860acb1ad:  81 e6 00 f0 ff ff        andl     $0xfffff000, %esi
0x7f7860acb1b3:  3b 37                    cmpl     (%rdi), %esi
0x7f7860acb1b5:  0f 85 0c 01 00 00        jne      0x7f7860acb2c7
0x7f7860acb1bb:  48 8b 7f 18              movq     0x18(%rdi), %rdi
0x7f7860acb1bf:  45 0f b6 34 3e           movzbl   (%r14, %rdi), %r14d
0x7f7860acb1c4:  44 89 75 04              movl     %r14d, 4(%rbp)
  -- guest addr 0x0000000000000368
0x7f7860acb1c8:  8b fb                    movl     %ebx, %edi
0x7f7860acb1ca:  c1 ef 07                 shrl     $7, %edi
0x7f7860acb1cd:  23 bd 10 ff ff ff        andl     -0xf0(%rbp), %edi
0x7f7860acb1d3:  48 03 bd 18 ff ff ff     addq     -0xe8(%rbp), %rdi
0x7f7860acb1da:  8b f3                    movl     %ebx, %esi
0x7f7860acb1dc:  81 e6 00 f0 ff ff        andl     $0xfffff000, %esi
0x7f7860acb1e2:  3b 77 08                 cmpl     8(%rdi), %esi
0x7f7860acb1e5:  0f 85 fc 00 00 00        jne      0x7f7860acb2e7
0x7f7860acb1eb:  48 8b 7f 18              movq     0x18(%rdi), %rdi
0x7f7860acb1ef:  44 88 34 3b              movb     %r14b, (%rbx, %rdi)
  -- guest addr 0x000000000000036b
0x7f7860acb1f3:  44 89 65 04              movl     %r12d, 4(%rbp)
  -- guest addr 0x000000000000036d
0x7f7860acb1f7:  c7 45 00 01 00 00 00     movl     $1, (%rbp)
0x7f7860acb1fe:  c7 45 2c 01 00 00 00     movl     $1, 0x2c(%rbp)
0x7f7860acb205:  c7 45 28 01 00 00 00     movl     $1, 0x28(%rbp)
  -- guest addr 0x0000000000000370
0x7f7860acb20c:  41 03 dd                 addl     %r13d, %ebx
0x7f7860acb20f:  8b fb                    movl     %ebx, %edi
0x7f7860acb211:  c1 ef 07                 shrl     $7, %edi
0x7f7860acb214:  23 bd 10 ff ff ff        andl     -0xf0(%rbp), %edi
0x7f7860acb21a:  48 03 bd 18 ff ff ff     addq     -0xe8(%rbp), %rdi
0x7f7860acb221:  8b f3                    movl     %ebx, %esi
0x7f7860acb223:  81 e6 00 f0 ff ff        andl     $0xfffff000, %esi
0x7f7860acb229:  3b 77 08                 cmpl     8(%rdi), %esi
0x7f7860acb22c:  0f 85 d4 00 00 00        jne      0x7f7860acb306
0x7f7860acb232:  48 8b 7f 18              movq     0x18(%rdi), %rdi
0x7f7860acb236:  44 88 24 3b              movb     %r12b, (%rbx, %rdi)
  -- guest addr 0x0000000000000373
0x7f7860acb23a:  41 ff cd                 decl     %r13d
0x7f7860acb23d:  44 89 6d 08              movl     %r13d, 8(%rbp)
  -- guest addr 0x0000000000000376
0x7f7860acb241:  44 89 6d 2c              movl     %r13d, 0x2c(%rbp)
0x7f7860acb245:  bb 01 00 00 00           movl     $1, %ebx
0x7f7860acb24a:  44 8b e3                 movl     %ebx, %r12d
0x7f7860acb24d:  45 2b e5                 subl     %r13d, %r12d
0x7f7860acb250:  44 89 65 28              movl     %r12d, 0x28(%rbp)
  -- guest addr 0x0000000000000378
0x7f7860acb254:  c7 45 34 10 00 00 00     movl     $0x10, 0x34(%rbp)
0x7f7860acb25b:  44 3b eb                 cmpl     %ebx, %r13d
0x7f7860acb25e:  0f 87 1c 00 00 00        ja       0x7f7860acb280
0x7f7860acb264:  8b 5d 20                 movl     0x20(%rbp), %ebx
0x7f7860acb267:  83 c3 24                 addl     $0x24, %ebx
0x7f7860acb26a:  89 5d 20                 movl     %ebx, 0x20(%rbp)
0x7f7860acb26d:  66 90                    nop      
0x7f7860acb26f:  e9 00 00 00 00           jmp      0x7f7860acb274
0x7f7860acb274:  48 8d 05 06 fe ff ff     leaq     -0x1fa(%rip), %rax
0x7f7860acb27b:  e9 98 4d 53 ff           jmp      0x7f7860000018
0x7f7860acb280:  8b 5d 20                 movl     0x20(%rbp), %ebx
0x7f7860acb283:  83 c3 0a                 addl     $0xa, %ebx
0x7f7860acb286:  89 5d 20                 movl     %ebx, 0x20(%rbp)
0x7f7860acb289:  66 90                    nop      
0x7f7860acb28b:  e9 00 00 00 00           jmp      0x7f7860acb290
0x7f7860acb290:  48 8d 05 e9 fd ff ff     leaq     -0x217(%rip), %rax
0x7f7860acb297:  e9 7c 4d 53 ff           jmp      0x7f7860000018
0x7f7860acb29c:  48 8d 05 e0 fd ff ff     leaq     -0x220(%rip), %rax
0x7f7860acb2a3:  e9 70 4d 53 ff           jmp      0x7f7860000018
  -- tb slow paths + alignment
0x7f7860acb2a8:  8b f3                    movl     %ebx, %esi
0x7f7860acb2aa:  48 8b fd                 movq     %rbp, %rdi
0x7f7860acb2ad:  ba 02 0e 00 00           movl     $0xe02, %edx
0x7f7860acb2b2:  48 8d 0d d1 fe ff ff     leaq     -0x12f(%rip), %rcx
0x7f7860acb2b9:  ff 15 69 00 00 00        callq    *0x69(%rip)
0x7f7860acb2bf:  44 8b e0                 movl     %eax, %r12d
0x7f7860acb2c2:  e9 c3 fe ff ff           jmp      0x7f7860acb18a
0x7f7860acb2c7:  41 8b f6                 movl     %r14d, %esi
0x7f7860acb2ca:  48 8b fd                 movq     %rbp, %rdi
0x7f7860acb2cd:  ba 02 0e 00 00           movl     $0xe02, %edx
0x7f7860acb2d2:  48 8d 0d eb fe ff ff     leaq     -0x115(%rip), %rcx
0x7f7860acb2d9:  ff 15 49 00 00 00        callq    *0x49(%rip)
0x7f7860acb2df:  44 8b f0                 movl     %eax, %r14d
0x7f7860acb2e2:  e9 dd fe ff ff           jmp      0x7f7860acb1c4
0x7f7860acb2e7:  8b f3                    movl     %ebx, %esi
0x7f7860acb2e9:  41 8b d6                 movl     %r14d, %edx
0x7f7860acb2ec:  48 8b fd                 movq     %rbp, %rdi
0x7f7860acb2ef:  b9 02 0e 00 00           movl     $0xe02, %ecx
0x7f7860acb2f4:  4c 8d 05 f8 fe ff ff     leaq     -0x108(%rip), %r8
0x7f7860acb2fb:  ff 15 2f 00 00 00        callq    *0x2f(%rip)
0x7f7860acb301:  e9 ed fe ff ff           jmp      0x7f7860acb1f3
0x7f7860acb306:  8b f3                    movl     %ebx, %esi
0x7f7860acb308:  41 8b d4                 movl     %r12d, %edx
0x7f7860acb30b:  48 8b fd                 movq     %rbp, %rdi
0x7f7860acb30e:  b9 02 0e 00 00           movl     $0xe02, %ecx
0x7f7860acb313:  4c 8d 05 20 ff ff ff     leaq     -0xe0(%rip), %r8
0x7f7860acb31a:  ff 15 10 00 00 00        callq    *0x10(%rip)
0x7f7860acb320:  e9 15 ff ff ff           jmp      0x7f7860acb23a
0x7f7860acb325:  90                       nop      
0x7f7860acb326:  90                       nop      
0x7f7860acb327:  90                       nop      
  data: [size=16]
0x7f7860acb328:  .quad  0x0000557106c211c0
0x7f7860acb330:  .quad  0x0000557106c21470

OUT: [size=496]
  -- guest addr 0x0000000000000360 + tb prologue
0x7f7860acb440:  8b 5d f0                 movl     -0x10(%rbp), %ebx
0x7f7860acb443:  85 db                    testl    %ebx, %ebx
0x7f7860acb445:  0f 8c 49 01 00 00        jl       0x7f7860acb594
0x7f7860acb44b:  c7 85 20 db ff ff 00 00  movl     $0, -0x24e0(%rbp)
0x7f7860acb453:  00 00
0x7f7860acb455:  8b 5d 00                 movl     (%rbp), %ebx
0x7f7860acb458:  44 8b 65 0c              movl     0xc(%rbp), %r12d
0x7f7860acb45c:  46 8d 2c 23              leal     (%rbx, %r12), %r13d
0x7f7860acb460:  41 8b fd                 movl     %r13d, %edi
0x7f7860acb463:  c1 ef 07                 shrl     $7, %edi
0x7f7860acb466:  23 bd 10 ff ff ff        andl     -0xf0(%rbp), %edi
0x7f7860acb46c:  48 03 bd 18 ff ff ff     addq     -0xe8(%rbp), %rdi
0x7f7860acb473:  41 8b f5                 movl     %r13d, %esi
0x7f7860acb476:  81 e6 00 f0 ff ff        andl     $0xfffff000, %esi
0x7f7860acb47c:  3b 37                    cmpl     (%rdi), %esi
0x7f7860acb47e:  0f 85 1c 01 00 00        jne      0x7f7860acb5a0
0x7f7860acb484:  48 8b 7f 18              movq     0x18(%rdi), %rdi
0x7f7860acb488:  45 0f b6 6c 3d 00        movzbl   (%r13, %rdi), %r13d
0x7f7860acb48e:  44 89 6d 1c              movl     %r13d, 0x1c(%rbp)
  -- guest addr 0x0000000000000364
0x7f7860acb492:  44 8b 75 08              movl     8(%rbp), %r14d
0x7f7860acb496:  47 8d 3c 26              leal     (%r14, %r12), %r15d
0x7f7860acb49a:  41 8b ff                 movl     %r15d, %edi
0x7f7860acb49d:  c1 ef 07                 shrl     $7, %edi
0x7f7860acb4a0:  23 bd 10 ff ff ff        andl     -0xf0(%rbp), %edi
0x7f7860acb4a6:  48 03 bd 18 ff ff ff     addq     -0xe8(%rbp), %rdi
0x7f7860acb4ad:  41 8b f7                 movl     %r15d, %esi
0x7f7860acb4b0:  81 e6 00 f0 ff ff        andl     $0xfffff000, %esi
0x7f7860acb4b6:  3b 37                    cmpl     (%rdi), %esi
0x7f7860acb4b8:  0f 85 02 01 00 00        jne      0x7f7860acb5c0
0x7f7860acb4be:  48 8b 7f 18              movq     0x18(%rdi), %rdi
0x7f7860acb4c2:  45 0f b6 3c 3f           movzbl   (%r15, %rdi), %r15d
0x7f7860acb4c7:  44 89 7d 04              movl     %r15d, 4(%rbp)
  -- guest addr 0x0000000000000368
0x7f7860acb4cb:  46 8d 14 23              leal     (%rbx, %r12), %r10d
0x7f7860acb4cf:  41 8b fa                 movl     %r10d, %edi
0x7f7860acb4d2:  c1 ef 07                 shrl     $7, %edi
0x7f7860acb4d5:  23 bd 10 ff ff ff        andl     -0xf0(%rbp), %edi
0x7f7860acb4db:  48 03 bd 18 ff ff ff     addq     -0xe8(%rbp), %rdi
0x7f7860acb4e2:  41 8b f2                 movl     %r10d, %esi
0x7f7860acb4e5:  81 e6 00 f0 ff ff        andl     $0xfffff000, %esi
0x7f7860acb4eb:  3b 77 08                 cmpl     8(%rdi), %esi
0x7f7860acb4ee:  0f 85 ec 00 00 00        jne      0x7f7860acb5e0
0x7f7860acb4f4:  48 8b 7f 18              movq     0x18(%rdi), %rdi
0x7f7860acb4f8:  45 88 3c 3a              movb     %r15b, (%r10, %rdi)
  -- guest addr 0x000000000000036b
0x7f7860acb4fc:  44 89 6d 04              movl     %r13d, 4(%rbp)
  -- guest addr 0x000000000000036d
0x7f7860acb500:  ff c3                    incl     %ebx
0x7f7860acb502:  89 5d 00                 movl     %ebx, (%rbp)
0x7f7860acb505:  c7 45 2c 01 00 00 00     movl     $1, 0x2c(%rbp)
0x7f7860acb50c:  89 5d 28                 movl     %ebx, 0x28(%rbp)
  -- guest addr 0x0000000000000370
0x7f7860acb50f:  45 03 e6                 addl     %r14d, %r12d
0x7f7860acb512:  41 8b fc                 movl     %r12d, %edi
0x7f7860acb515:  c1 ef 07                 shrl     $7, %edi
0x7f7860acb518:  23 bd 10 ff ff ff        andl     -0xf0(%rbp), %edi
0x7f7860acb51e:  48 03 bd 18 ff ff ff     addq     -0xe8(%rbp), %rdi
0x7f7860acb525:  41 8b f4                 movl     %r12d, %esi
0x7f7860acb528:  81 e6 00 f0 ff ff        andl     $0xfffff000, %esi
0x7f7860acb52e:  3b 77 08                 cmpl     8(%rdi), %esi
0x7f7860acb531:  0f 85 c9 00 00 00        jne      0x7f7860acb600
0x7f7860acb537:  48 8b 7f 18              movq     0x18(%rdi), %rdi
0x7f7860acb53b:  45 88 2c 3c              movb     %r13b, (%r12, %rdi)
  -- guest addr 0x0000000000000373
0x7f7860acb53f:  41 ff ce                 decl     %r14d
0x7f7860acb542:  44 89 75 08              movl     %r14d, 8(%rbp)make: *** [makefile:49: run] Error 1
